libcalamaresui.so.2.4.5 libcalamaresui2.4.5 #MINVER#
 (optional=templinst)_Z27qRegisterNormalizedMetaTypeI14QSharedPointerIN9Calamares3JobEEEiRK10QByteArrayPT_N9QtPrivate21MetaTypeDefinedHelperIS7_Xaasr12QMetaTypeId2IS7_E7DefinedntsrSC_9IsBuiltInEE11DefinedTypeE@Base 2.4.5
 (optional=templinst)_Z27qRegisterNormalizedMetaTypeI5QListI14QSharedPointerIN9Calamares3JobEEEEiRK10QByteArrayPT_N9QtPrivate21MetaTypeDefinedHelperIS9_Xaasr12QMetaTypeId2IS9_E7DefinedntsrSE_9IsBuiltInEE11DefinedTypeE@Base 2.4.5
 _Z29qInitResources_libcalamaresuiv@Base 2.4.5
 _Z32qCleanupResources_libcalamaresuiv@Base 2.4.5
 _ZGVZN9QtPrivate19ValueTypeIsMetaTypeI5QListI14QSharedPointerIN9Calamares3JobEEELb1EE17registerConverterEiE1f@Base 2.4.5
 _ZGVZN9QtPrivate26MetaTypeSmartPointerHelperI14QSharedPointerIN9Calamares3JobEEvE17registerConverterEiE1f@Base 2.4.5
 _ZN10QByteArrayD1Ev@Base 2.4.5
 _ZN10QByteArrayD2Ev@Base 2.4.5
 _ZN10QJsonModel11qt_metacallEN11QMetaObject4CallEiPPv@Base 2.4.5
 _ZN10QJsonModel11qt_metacastEPKc@Base 2.4.5
 _ZN10QJsonModel16staticMetaObjectE@Base 2.4.5
 _ZN10QJsonModel4loadEP9QIODevice@Base 2.4.5
 _ZN10QJsonModel4loadERK7QString@Base 2.4.5
 _ZN10QJsonModel7setIconERKN10QJsonValue4TypeERK5QIcon@Base 2.4.5
 _ZN10QJsonModel8loadJsonERK10QByteArray@Base 2.4.5
 _ZN10QJsonModelC1EP7QObject@Base 2.4.5
 _ZN10QJsonModelC2EP7QObject@Base 2.4.5
 _ZN10QJsonModelD0Ev@Base 2.4.5
 _ZN10QJsonModelD1Ev@Base 2.4.5
 _ZN10QJsonModelD2Ev@Base 2.4.5
 _ZN11QStringListD1Ev@Base 2.4.5
 _ZN11QStringListD2Ev@Base 2.4.5
 _ZN13ImageRegistry10putInCacheERK7QStringRK5QSizeN14CalamaresUtils9ImageModeEfRK7QPixmap6QColor@Base 2.4.5
 _ZN13ImageRegistry10s_instanceE@Base 2.4.5
 _ZN13ImageRegistry4iconERK7QStringN14CalamaresUtils9ImageModeE@Base 2.4.5
 _ZN13ImageRegistry6pixmapERK7QStringRK5QSizeN14CalamaresUtils9ImageModeEf6QColor@Base 2.4.5
 _ZN13ImageRegistry8cacheKeyERK5QSizef6QColor@Base 2.4.5
 _ZN13ImageRegistry8instanceEv@Base 2.4.5
 _ZN13ImageRegistryC1Ev@Base 2.4.5
 _ZN13ImageRegistryC2Ev@Base 2.4.5
 _ZN13QJsonTreeItem11appendChildEPS_@Base 2.4.5
 _ZN13QJsonTreeItem4loadERK10QJsonValuePS_@Base 2.4.5
 _ZN13QJsonTreeItem5childEi@Base 2.4.5
 _ZN13QJsonTreeItem6parentEv@Base 2.4.5
 _ZN13QJsonTreeItem6setKeyERK7QString@Base 2.4.5
 _ZN13QJsonTreeItem7setTypeERKN10QJsonValue4TypeE@Base 2.4.5
 _ZN13QJsonTreeItem8setValueERK7QString@Base 2.4.5
 _ZN13QJsonTreeItemC1EPS_@Base 2.4.5
 _ZN13QJsonTreeItemC2EPS_@Base 2.4.5
 _ZN13QJsonTreeItemD0Ev@Base 2.4.5
 _ZN13QJsonTreeItemD1Ev@Base 2.4.5
 _ZN13QJsonTreeItemD2Ev@Base 2.4.5
 _ZN13WaitingWidget11qt_metacallEN11QMetaObject4CallEiPPv@Base 2.4.5
 _ZN13WaitingWidget11qt_metacastEPKc@Base 2.4.5
 _ZN13WaitingWidget16staticMetaObjectE@Base 2.4.5
 _ZN13WaitingWidget7setTextERK7QString@Base 2.4.5
 _ZN13WaitingWidgetC1ERK7QStringP7QWidget@Base 2.4.5
 _ZN13WaitingWidgetC2ERK7QStringP7QWidget@Base 2.4.5
 _ZN13WaitingWidgetD0Ev@Base 2.4.5
 _ZN13WaitingWidgetD1Ev@Base 2.4.5
 _ZN13WaitingWidgetD2Ev@Base 2.4.5
 _ZN14CalamaresUtils11clearLayoutEP7QLayout@Base 2.4.5
 _ZN14CalamaresUtils11defaultFontEv@Base 2.4.5
 _ZN14CalamaresUtils13defaultPixmapENS_9ImageTypeENS_9ImageModeERK5QSize@Base 2.4.5
 _ZN14CalamaresUtils13yamlToVariantERKN4YAML4NodeE@Base 2.4.5
 _ZN14CalamaresUtils14unmarginLayoutEP7QLayout@Base 2.4.5
 _ZN14CalamaresUtils15defaultFontSizeEv@Base 2.4.5
 _ZN14CalamaresUtils15defaultIconSizeEv@Base 2.4.5
 _ZN14CalamaresUtils16yamlMapToVariantERKN4YAML4NodeE@Base 2.4.5
 _ZN14CalamaresUtils17defaultFontHeightEv@Base 2.4.5
 _ZN14CalamaresUtils18createRoundedImageERK7QPixmapRK5QSizef@Base 2.4.5
 _ZN14CalamaresUtils18setDefaultFontSizeEi@Base 2.4.5
 _ZN14CalamaresUtils19yamlScalarToVariantERKN4YAML4NodeE@Base 2.4.5
 _ZN14CalamaresUtils21yamlSequenceToVariantERKN4YAML4NodeE@Base 2.4.5
 _ZN14ClickableLabel11qt_metacallEN11QMetaObject4CallEiPPv@Base 2.4.5
 _ZN14ClickableLabel11qt_metacastEPKc@Base 2.4.5
 _ZN14ClickableLabel15mousePressEventEP11QMouseEvent@Base 2.4.5
 _ZN14ClickableLabel16staticMetaObjectE@Base 2.4.5
 _ZN14ClickableLabel17mouseReleaseEventEP11QMouseEvent@Base 2.4.5
 _ZN14ClickableLabel7clickedEv@Base 2.4.5
 _ZN14ClickableLabelC1EP7QWidget6QFlagsIN2Qt10WindowTypeEE@Base 2.4.5
 _ZN14ClickableLabelC1ERK7QStringP7QWidget6QFlagsIN2Qt10WindowTypeEE@Base 2.4.5
 _ZN14ClickableLabelC2EP7QWidget6QFlagsIN2Qt10WindowTypeEE@Base 2.4.5
 _ZN14ClickableLabelC2ERK7QStringP7QWidget6QFlagsIN2Qt10WindowTypeEE@Base 2.4.5
 _ZN14ClickableLabelD0Ev@Base 2.4.5
 _ZN14ClickableLabelD1Ev@Base 2.4.5
 _ZN14ClickableLabelD2Ev@Base 2.4.5
 (optional=templinst)_ZN14QSharedPointerIN9Calamares3JobEE5derefEPN15QtSharedPointer20ExternalRefCountDataE@Base 2.4.5
 (optional=templinst)_ZN15QtSharedPointer33ExternalRefCountWithCustomDeleterIN9Calamares3JobENS_13NormalDeleterEE7deleterEPNS_20ExternalRefCountDataE@Base 2.4.5
 _ZN16QtWaitingSpinner10paintEventEP11QPaintEvent@Base 2.4.5
 _ZN16QtWaitingSpinner10setOpacityEi@Base 2.4.5
 _ZN16QtWaitingSpinner10updateSizeEv@Base 2.4.5
 _ZN16QtWaitingSpinner11qt_metacallEN11QMetaObject4CallEiPPv@Base 2.4.5
 _ZN16QtWaitingSpinner11qt_metacastEPKc@Base 2.4.5
 _ZN16QtWaitingSpinner11updateTimerEv@Base 2.4.5
 _ZN16QtWaitingSpinner12countTimeoutEid@Base 2.4.5
 _ZN16QtWaitingSpinner12lineDistanceEiii@Base 2.4.5
 _ZN16QtWaitingSpinner12setRoundnessEd@Base 2.4.5
 _ZN16QtWaitingSpinner14setLinesNumberEi@Base 2.4.5
 _ZN16QtWaitingSpinner15countTrailColorEiiii6QColor@Base 2.4.5
 _ZN16QtWaitingSpinner16staticMetaObjectE@Base 2.4.5
 _ZN16QtWaitingSpinner5startEv@Base 2.4.5
 _ZN16QtWaitingSpinner6finishEv@Base 2.4.5
 _ZN16QtWaitingSpinner6rotateEv@Base 2.4.5
 _ZN16QtWaitingSpinner8setColorE6QColor@Base 2.4.5
 _ZN16QtWaitingSpinner8setSpeedEd@Base 2.4.5
 _ZN16QtWaitingSpinner8setTrailEi@Base 2.4.5
 _ZN16QtWaitingSpinner8setWidthEi@Base 2.4.5
 _ZN16QtWaitingSpinner9setLengthEi@Base 2.4.5
 _ZN16QtWaitingSpinner9setRadiusEi@Base 2.4.5
 _ZN16QtWaitingSpinnerC1EiiiiP7QWidget@Base 2.4.5
 _ZN16QtWaitingSpinnerC2EiiiiP7QWidget@Base 2.4.5
 _ZN16QtWaitingSpinnerD0Ev@Base 2.4.5
 _ZN16QtWaitingSpinnerD1Ev@Base 2.4.5
 _ZN16QtWaitingSpinnerD2Ev@Base 2.4.5
 (optional=templinst)_ZN17QtMetaTypePrivate19IteratorOwnerCommonIN5QListI14QSharedPointerIN9Calamares3JobEEE14const_iteratorEE5equalEPKPvSB_@Base 2.4.5
 (optional=templinst)_ZN17QtMetaTypePrivate19IteratorOwnerCommonIN5QListI14QSharedPointerIN9Calamares3JobEEE14const_iteratorEE6assignEPPvPKS9_@Base 2.4.5
 (optional=templinst)_ZN17QtMetaTypePrivate19IteratorOwnerCommonIN5QListI14QSharedPointerIN9Calamares3JobEEE14const_iteratorEE7advanceEPPvi@Base 2.4.5
 (optional=templinst)_ZN17QtMetaTypePrivate19IteratorOwnerCommonIN5QListI14QSharedPointerIN9Calamares3JobEEE14const_iteratorEE7destroyEPPv@Base 2.4.5
 (optional=templinst)_ZN17QtMetaTypePrivate23QMetaTypeFunctionHelperI14QItemSelectionLb1EE8DestructEPv@Base 2.4.5
 (optional=templinst)_ZN17QtMetaTypePrivate23QMetaTypeFunctionHelperI14QItemSelectionLb1EE9ConstructEPvPKv@Base 2.4.5
 (optional=templinst)_ZN17QtMetaTypePrivate23QMetaTypeFunctionHelperI14QSharedPointerIN9Calamares3JobEELb1EE8DestructEPv@Base 2.4.5
 (optional=templinst)_ZN17QtMetaTypePrivate23QMetaTypeFunctionHelperI14QSharedPointerIN9Calamares3JobEELb1EE9ConstructEPvPKv@Base 2.4.5
 (optional=templinst)_ZN17QtMetaTypePrivate23QMetaTypeFunctionHelperI5QListI14QSharedPointerIN9Calamares3JobEEELb1EE8DestructEPv@Base 2.4.5
 (optional=templinst)_ZN17QtMetaTypePrivate23QMetaTypeFunctionHelperI5QListI14QSharedPointerIN9Calamares3JobEEELb1EE9ConstructEPvPKv@Base 2.4.5
 (optional=templinst)_ZN17QtMetaTypePrivate23QMetaTypeFunctionHelperINS_23QSequentialIterableImplELb1EE8DestructEPv@Base 2.4.5
 (optional=templinst)_ZN17QtMetaTypePrivate23QMetaTypeFunctionHelperINS_23QSequentialIterableImplELb1EE9ConstructEPvPKv@Base 2.4.5
 (optional=templinst)_ZN17QtMetaTypePrivate23QSequentialIterableImpl13moveToEndImplI5QListI14QSharedPointerIN9Calamares3JobEEEEEvPKvPPv@Base 2.4.5
 (optional=templinst)_ZN17QtMetaTypePrivate23QSequentialIterableImpl15moveToBeginImplI5QListI14QSharedPointerIN9Calamares3JobEEEEEvPKvPPv@Base 2.4.5
 (optional=templinst)_ZN17QtMetaTypePrivate23QSequentialIterableImpl6atImplI5QListI14QSharedPointerIN9Calamares3JobEEEEEPKvS9_i@Base 2.4.5
 (optional=templinst)_ZN17QtMetaTypePrivate23QSequentialIterableImpl7getImplI5QListI14QSharedPointerIN9Calamares3JobEEEEENS_11VariantDataEPKPvij@Base 2.4.5
 (optional=templinst)_ZN17QtMetaTypePrivate23QSequentialIterableImpl8sizeImplI5QListI14QSharedPointerIN9Calamares3JobEEEEEiPKv@Base 2.4.5
 _ZN21FixedAspectRatioLabel11qt_metacallEN11QMetaObject4CallEiPPv@Base 2.4.5
 _ZN21FixedAspectRatioLabel11qt_metacastEPKc@Base 2.4.5
 _ZN21FixedAspectRatioLabel11resizeEventEP12QResizeEvent@Base 2.4.5
 _ZN21FixedAspectRatioLabel16staticMetaObjectE@Base 2.4.5
 _ZN21FixedAspectRatioLabel9setPixmapERK7QPixmap@Base 2.4.5
 _ZN21FixedAspectRatioLabelC1EP7QWidget@Base 2.4.5
 _ZN21FixedAspectRatioLabelC2EP7QWidget@Base 2.4.5
 _ZN21FixedAspectRatioLabelD0Ev@Base 2.4.5
 _ZN21FixedAspectRatioLabelD1Ev@Base 2.4.5
 _ZN21FixedAspectRatioLabelD2Ev@Base 2.4.5
 (optional=templinst)_ZN4QMapI7QString8QVariantED1Ev@Base 2.4.5
 (optional=templinst)_ZN4QMapI7QString8QVariantED2Ev@Base 2.4.5
 (optional=templinst)_ZN4QMapI7QStringS0_E5clearEv@Base 2.4.5
 (optional=templinst)_ZN4QMapI7QStringS0_ED1Ev@Base 2.4.5
 (optional=templinst)_ZN4QMapI7QStringS0_ED2Ev@Base 2.4.5
 (optional=templinst)_ZN4QMapI7QStringS_IS0_8QVariantEE13detach_helperEv@Base 2.4.5
 (optional=templinst)_ZN4QMapI7QStringS_IS0_8QVariantEE5eraseENS3_8iteratorE@Base 2.4.5
 (optional=templinst)_ZN4QMapI7QStringS_IS0_8QVariantEED1Ev@Base 2.4.5
 (optional=templinst)_ZN4QMapI7QStringS_IS0_8QVariantEED2Ev@Base 2.4.5
 _ZN4YAML11InvalidNodeC1Ev@Base 2.4.5
 _ZN4YAML11InvalidNodeC2Ev@Base 2.4.5
 _ZN4YAML11InvalidNodeD0Ev@Base 2.4.5
 _ZN4YAML11InvalidNodeD1Ev@Base 2.4.5
 _ZN4YAML11InvalidNodeD2Ev@Base 2.4.5
 _ZN4YAML12BadSubscriptD0Ev@Base 2.4.5
 _ZN4YAML12BadSubscriptD1Ev@Base 2.4.5
 _ZN4YAML12BadSubscriptD2Ev@Base 2.4.5
 _ZN4YAML13BadConversionC1Ev@Base 2.4.5
 _ZN4YAML13BadConversionC2Ev@Base 2.4.5
 _ZN4YAML13BadConversionD0Ev@Base 2.4.5
 _ZN4YAML13BadConversionD1Ev@Base 2.4.5
 _ZN4YAML13BadConversionD2Ev@Base 2.4.5
 (optional=templinst)_ZN4YAML18TypedBadConversionINSt7__cxx1112basic_stringIcSt11char_traitsIcESaIcEEEED0Ev@Base 2.4.5
 (optional=templinst)_ZN4YAML18TypedBadConversionINSt7__cxx1112basic_stringIcSt11char_traitsIcESaIcEEEED1Ev@Base 2.4.5
 (optional=templinst)_ZN4YAML18TypedBadConversionINSt7__cxx1112basic_stringIcSt11char_traitsIcESaIcEEEED2Ev@Base 2.4.5
 (optional=templinst)_ZN4YAML18TypedBadConversionIbED0Ev@Base 2.4.5
 (optional=templinst)_ZN4YAML18TypedBadConversionIbED1Ev@Base 2.4.5
 (optional=templinst)_ZN4YAML18TypedBadConversionIbED2Ev@Base 2.4.5
 _ZN4YAML23RepresentationExceptionD0Ev@Base 2.4.5
 _ZN4YAML23RepresentationExceptionD1Ev@Base 2.4.5
 _ZN4YAML23RepresentationExceptionD2Ev@Base 2.4.5
 _ZN4YAML4NodeixIA12_cEES0_RKT_@Base 2.4.5
 _ZN4YAML4NodeixIA6_cEES0_RKT_@Base 2.4.5
 _ZN4YAML6detail14iterator_valueD1Ev@Base 2.4.5
 _ZN4YAML6detail14iterator_valueD2Ev@Base 2.4.5
 _ZN4YAML6detail16unspecified_bool10true_valueEPNS1_11NOT_ALLOWEDE@Base 2.4.5
 _ZN4YAML6detail4node12mark_definedEv@Base 2.4.5
 (optional=templinst)_ZN4YAML6detail9node_data3getINSt7__cxx1112basic_stringIcSt11char_traitsIcESaIcEEEEERNS0_4nodeERKT_N5boost10shared_ptrINS0_13memory_holderEEE@Base 2.4.5
 _ZN4YAML9Exception10build_whatERKNS_4MarkERKNSt7__cxx1112basic_stringIcSt11char_traitsIcESaIcEEE@Base 2.4.5
 _ZN4YAML9ExceptionD0Ev@Base 2.4.5
 _ZN4YAML9ExceptionD1Ev@Base 2.4.5
 _ZN4YAML9ExceptionD2Ev@Base 2.4.5
 (optional=templinst)_ZN5QHashI7QStringS_IiS_Ix7QPixmapEEE11deleteNode2EPN9QHashData4NodeE@Base 2.4.5
 (optional=templinst)_ZN5QHashI7QStringS_IiS_Ix7QPixmapEEE13duplicateNodeEPN9QHashData4NodeEPv@Base 2.4.5
 (optional=templinst)_ZN5QHashI7QStringS_IiS_Ix7QPixmapEEED1Ev@Base 2.4.5
 (optional=templinst)_ZN5QHashI7QStringS_IiS_Ix7QPixmapEEED2Ev@Base 2.4.5
 (optional=templinst)_ZN5QHashIN10QJsonValue4TypeE5QIconE11deleteNode2EPN9QHashData4NodeE@Base 2.4.5
 (optional=templinst)_ZN5QHashIN10QJsonValue4TypeE5QIconE13duplicateNodeEPN9QHashData4NodeEPv@Base 2.4.5
 (optional=templinst)_ZN5QHashIiS_Ix7QPixmapEE11deleteNode2EPN9QHashData4NodeE@Base 2.4.5
 (optional=templinst)_ZN5QHashIiS_Ix7QPixmapEE13detach_helperEv@Base 2.4.5
 (optional=templinst)_ZN5QHashIiS_Ix7QPixmapEE13duplicateNodeEPN9QHashData4NodeEPv@Base 2.4.5
 (optional=templinst)_ZN5QHashIiS_Ix7QPixmapEED1Ev@Base 2.4.5
 (optional=templinst)_ZN5QHashIiS_Ix7QPixmapEED2Ev@Base 2.4.5
 (optional=templinst)_ZN5QHashIx7QPixmapE11deleteNode2EPN9QHashData4NodeE@Base 2.4.5
 (optional=templinst)_ZN5QHashIx7QPixmapE13detach_helperEv@Base 2.4.5
 (optional=templinst)_ZN5QHashIx7QPixmapE13duplicateNodeEPN9QHashData4NodeEPv@Base 2.4.5
 (optional=templinst)_ZN5QHashIx7QPixmapED1Ev@Base 2.4.5
 (optional=templinst)_ZN5QHashIx7QPixmapED2Ev@Base 2.4.5
 (optional=templinst)_ZN5QListI14QSharedPointerIN9Calamares3JobEEE18detach_helper_growEii@Base 2.4.5
 (optional=templinst)_ZN5QListI14QSharedPointerIN9Calamares3JobEEE6appendERKS3_@Base 2.4.5
 (optional=templinst)_ZN5QListI14QSharedPointerIN9Calamares3JobEEEC1ERKS4_@Base 2.4.5
 (optional=templinst)_ZN5QListI14QSharedPointerIN9Calamares3JobEEEC2ERKS4_@Base 2.4.5
 (optional=templinst)_ZN5QListI14QSharedPointerIN9Calamares3JobEEED1Ev@Base 2.4.5
 (optional=templinst)_ZN5QListI14QSharedPointerIN9Calamares3JobEEED2Ev@Base 2.4.5
 (optional=templinst)_ZN5QListI19QItemSelectionRangeEC1ERKS1_@Base 2.4.5
 (optional=templinst)_ZN5QListI19QItemSelectionRangeEC2ERKS1_@Base 2.4.5
 (optional=templinst)_ZN5QListI4QMapI7QStringS1_EE13detach_helperEi@Base 2.4.5
 (optional=templinst)_ZN5QListI4QMapI7QStringS1_EE18detach_helper_growEii@Base 2.4.5
 (optional=templinst)_ZN5QListI4QMapI7QStringS1_EE6appendERKS2_@Base 2.4.5
 (optional=templinst)_ZN5QListI4QMapI7QStringS1_EEC1ERKS3_@Base 2.4.5
 (optional=templinst)_ZN5QListI4QMapI7QStringS1_EEC2ERKS3_@Base 2.4.5
 (optional=templinst)_ZN5QListI4QMapI7QStringS1_EED1Ev@Base 2.4.5
 (optional=templinst)_ZN5QListI4QMapI7QStringS1_EED2Ev@Base 2.4.5
 (optional=templinst)_ZN5QListI5QPairIN9Calamares12ModuleActionE11QStringListEE18detach_helper_growEii@Base 2.4.5
 (optional=templinst)_ZN5QListI5QPairIN9Calamares12ModuleActionE11QStringListEE6appendERKS4_@Base 2.4.5
 (optional=templinst)_ZN5QListI5QPairIN9Calamares12ModuleActionE11QStringListEEC1ERKS5_@Base 2.4.5
 (optional=templinst)_ZN5QListI5QPairIN9Calamares12ModuleActionE11QStringListEEC2ERKS5_@Base 2.4.5
 (optional=templinst)_ZN5QListI5QPairIN9Calamares12ModuleActionE11QStringListEED1Ev@Base 2.4.5
 (optional=templinst)_ZN5QListI5QPairIN9Calamares12ModuleActionE11QStringListEED2Ev@Base 2.4.5
 (optional=templinst)_ZN5QListI7QStringE13detach_helperEi@Base 2.4.5
 (optional=templinst)_ZN5QListI7QStringE18detach_helper_growEii@Base 2.4.5
 (optional=templinst)_ZN5QListI7QStringE6appendERKS0_@Base 2.4.5
 (optional=templinst)_ZN5QListI7QStringEC1ERKS1_@Base 2.4.5
 (optional=templinst)_ZN5QListI7QStringEC1ESt16initializer_listIS0_E@Base 2.4.5
 (optional=templinst)_ZN5QListI7QStringEC2ERKS1_@Base 2.4.5
 (optional=templinst)_ZN5QListI7QStringEC2ESt16initializer_listIS0_E@Base 2.4.5
 (optional=templinst)_ZN5QListI7QStringED1Ev@Base 2.4.5
 (optional=templinst)_ZN5QListI7QStringED2Ev@Base 2.4.5
 (optional=templinst)_ZN5QListI8QVariantE18detach_helper_growEii@Base 2.4.5
 (optional=templinst)_ZN5QListI8QVariantE6appendERKS0_@Base 2.4.5
 (optional=templinst)_ZN5QListI8QVariantED1Ev@Base 2.4.5
 (optional=templinst)_ZN5QListI8QVariantED2Ev@Base 2.4.5
 (optional=templinst)_ZN5QListIP13QJsonTreeItemE18detach_helper_growEii@Base 2.4.5
 (optional=templinst)_ZN5QListIP13QJsonTreeItemE6appendERKS1_@Base 2.4.5
 (optional=templinst)_ZN5QListIPN9Calamares8ViewStepEE13detach_helperEi@Base 2.4.5
 (optional=templinst)_ZN5QListIPN9Calamares8ViewStepEE18detach_helper_growEii@Base 2.4.5
 (optional=templinst)_ZN5QListIPN9Calamares8ViewStepEED1Ev@Base 2.4.5
 (optional=templinst)_ZN5QListIPN9Calamares8ViewStepEED2Ev@Base 2.4.5
 (optional=templinst)_ZN5boost14checked_deleteIN4YAML6detail13memory_holderEEEvPT_@Base 2.4.5
 (optional=templinst)_ZN5boost14checked_deleteIN4YAML6detail6memoryEEEvPT_@Base 2.4.5
 _ZN5boost6detail15sp_counted_base7destroyEv@Base 2.4.5
 (optional=templinst)_ZN5boost6detail17sp_counted_impl_pIN4YAML6detail13memory_holderEE11get_deleterERKSt9type_info@Base 2.4.5
 (optional=templinst)_ZN5boost6detail17sp_counted_impl_pIN4YAML6detail13memory_holderEE19get_untyped_deleterEv@Base 2.4.5
 (optional=templinst)_ZN5boost6detail17sp_counted_impl_pIN4YAML6detail13memory_holderEE7disposeEv@Base 2.4.5
 (optional=templinst)_ZN5boost6detail17sp_counted_impl_pIN4YAML6detail13memory_holderEED0Ev@Base 2.4.5
 (optional=templinst)_ZN5boost6detail17sp_counted_impl_pIN4YAML6detail13memory_holderEED1Ev@Base 2.4.5
 (optional=templinst)_ZN5boost6detail17sp_counted_impl_pIN4YAML6detail13memory_holderEED2Ev@Base 2.4.5
 (optional=templinst)_ZN5boost6detail17sp_counted_impl_pIN4YAML6detail6memoryEE11get_deleterERKSt9type_info@Base 2.4.5
 (optional=templinst)_ZN5boost6detail17sp_counted_impl_pIN4YAML6detail6memoryEE19get_untyped_deleterEv@Base 2.4.5
 (optional=templinst)_ZN5boost6detail17sp_counted_impl_pIN4YAML6detail6memoryEE7disposeEv@Base 2.4.5
 (optional=templinst)_ZN5boost6detail17sp_counted_impl_pIN4YAML6detail6memoryEED0Ev@Base 2.4.5
 (optional=templinst)_ZN5boost6detail17sp_counted_impl_pIN4YAML6detail6memoryEED1Ev@Base 2.4.5
 (optional=templinst)_ZN5boost6detail17sp_counted_impl_pIN4YAML6detail6memoryEED2Ev@Base 2.4.5
 _ZN6Logger6CDebugD0Ev@Base 2.4.5
 _ZN6Logger6CDebugD1Ev@Base 2.4.5
 _ZN6Logger6CDebugD2Ev@Base 2.4.5
 _ZN6QDebuglsEPKc@Base 2.4.5
 _ZN6QDebuglsERK7QString@Base 2.4.5
 _ZN7QStringC1EPKc@Base 2.4.5
 _ZN7QStringC2EPKc@Base 2.4.5
 _ZN7QStringD1Ev@Base 2.4.5
 _ZN7QStringD2Ev@Base 2.4.5
 (optional=templinst)_ZN8QMapDataI7QStringPN9Calamares6ModuleEE7destroyEv@Base 2.4.5
 (optional=templinst)_ZN8QMapNodeI7QString4QMapIS0_8QVariantEE14destroySubTreeEv@Base 2.4.5
 (optional=templinst)_ZN8QMapNodeI7QString8QVariantE14destroySubTreeEv@Base 2.4.5
 (optional=templinst)_ZN8QMapNodeI7QStringPN9Calamares6ModuleEE14destroySubTreeEv@Base 2.4.5
 (optional=templinst)_ZN8QMapNodeI7QStringS0_E14destroySubTreeEv@Base 2.4.5
 _ZN9Calamares10ViewModule8initFromERK4QMapI7QString8QVariantE@Base 2.4.5
 _ZN9Calamares10ViewModule8loadSelfEv@Base 2.4.5
 _ZN9Calamares10ViewModuleC1Ev@Base 2.4.5
 _ZN9Calamares10ViewModuleC2Ev@Base 2.4.5
 _ZN9Calamares10ViewModuleD0Ev@Base 2.4.5
 _ZN9Calamares10ViewModuleD1Ev@Base 2.4.5
 _ZN9Calamares10ViewModuleD2Ev@Base 2.4.5
 _ZN9Calamares11DebugWindow10closeEventEP11QCloseEvent@Base 2.4.5
 _ZN9Calamares11DebugWindow11qt_metacallEN11QMetaObject4CallEiPPv@Base 2.4.5
 _ZN9Calamares11DebugWindow11qt_metacastEPKc@Base 2.4.5
 _ZN9Calamares11DebugWindow16staticMetaObjectE@Base 2.4.5
 _ZN9Calamares11DebugWindow6closedEv@Base 2.4.5
 _ZN9Calamares11DebugWindowC1Ev@Base 2.4.5
 _ZN9Calamares11DebugWindowC2Ev@Base 2.4.5
 _ZN9Calamares11DebugWindowD0Ev@Base 2.4.5
 _ZN9Calamares11DebugWindowD1Ev@Base 2.4.5
 _ZN9Calamares11DebugWindowD2Ev@Base 2.4.5
 _ZN9Calamares11ViewManager10s_instanceE@Base 2.4.5
 _ZN9Calamares11ViewManager11addViewStepEPNS_8ViewStepE@Base 2.4.5
 _ZN9Calamares11ViewManager11qt_metacallEN11QMetaObject4CallEiPPv@Base 2.4.5
 _ZN9Calamares11ViewManager11qt_metacastEPKc@Base 2.4.5
 _ZN9Calamares11ViewManager13centralWidgetEv@Base 2.4.5
 _ZN9Calamares11ViewManager14insertViewStepEiPNS_8ViewStepE@Base 2.4.5
 _ZN9Calamares11ViewManager16staticMetaObjectE@Base 2.4.5
 _ZN9Calamares11ViewManager18currentStepChangedEv@Base 2.4.5
 _ZN9Calamares11ViewManager20onInstallationFailedERK7QStringS3_@Base 2.4.5
 _ZN9Calamares11ViewManager4backEv@Base 2.4.5
 _ZN9Calamares11ViewManager4nextEv@Base 2.4.5
 _ZN9Calamares11ViewManager8instanceEv@Base 2.4.5
 _ZN9Calamares11ViewManagerC1EP7QObject@Base 2.4.5
 _ZN9Calamares11ViewManagerC2EP7QObject@Base 2.4.5
 _ZN9Calamares11ViewManagerD0Ev@Base 2.4.5
 _ZN9Calamares11ViewManagerD1Ev@Base 2.4.5
 _ZN9Calamares11ViewManagerD2Ev@Base 2.4.5
 _ZN9Calamares12AbstractPage11qt_metacallEN11QMetaObject4CallEiPPv@Base 2.4.5
 _ZN9Calamares12AbstractPage11qt_metacastEPKc@Base 2.4.5
 _ZN9Calamares12AbstractPage16staticMetaObjectE@Base 2.4.5
 _ZN9Calamares12AbstractPageC1EP7QWidget@Base 2.4.5
 _ZN9Calamares12AbstractPageC2EP7QWidget@Base 2.4.5
 _ZN9Calamares12AbstractPageD0Ev@Base 2.4.5
 _ZN9Calamares12AbstractPageD1Ev@Base 2.4.5
 _ZN9Calamares12AbstractPageD2Ev@Base 2.4.5
 _ZN9Calamares12CppJobModule8initFromERK4QMapI7QString8QVariantE@Base 2.4.5
 _ZN9Calamares12CppJobModule8loadSelfEv@Base 2.4.5
 _ZN9Calamares12CppJobModuleC1Ev@Base 2.4.5
 _ZN9Calamares12CppJobModuleC2Ev@Base 2.4.5
 _ZN9Calamares12CppJobModuleD0Ev@Base 2.4.5
 _ZN9Calamares12CppJobModuleD1Ev@Base 2.4.5
 _ZN9Calamares12CppJobModuleD2Ev@Base 2.4.5
 _ZN9Calamares13ModuleManager10s_instanceE@Base 2.4.5
 _ZN9Calamares13ModuleManager11loadModulesEv@Base 2.4.5
 _ZN9Calamares13ModuleManager11qt_metacallEN11QMetaObject4CallEiPPv@Base 2.4.5
 _ZN9Calamares13ModuleManager11qt_metacastEPKc@Base 2.4.5
 _ZN9Calamares13ModuleManager13modulesLoadedEv@Base 2.4.5
 _ZN9Calamares13ModuleManager14moduleInstanceERK7QString@Base 2.4.5
 _ZN9Calamares13ModuleManager16moduleDescriptorERK7QString@Base 2.4.5
 _ZN9Calamares13ModuleManager16staticMetaObjectE@Base 2.4.5
 _ZN9Calamares13ModuleManager17checkDependenciesEv@Base 2.4.5
 _ZN9Calamares13ModuleManager18loadedInstanceKeysEv@Base 2.4.5
 _ZN9Calamares13ModuleManager4initEv@Base 2.4.5
 _ZN9Calamares13ModuleManager6doInitEv@Base 2.4.5
 _ZN9Calamares13ModuleManager8initDoneEv@Base 2.4.5
 _ZN9Calamares13ModuleManager8instanceEv@Base 2.4.5
 _ZN9Calamares13ModuleManagerC1ERK11QStringListP7QObject@Base 2.4.5
 _ZN9Calamares13ModuleManagerC2ERK11QStringListP7QObject@Base 2.4.5
 _ZN9Calamares13ModuleManagerD0Ev@Base 2.4.5
 _ZN9Calamares13ModuleManagerD1Ev@Base 2.4.5
 _ZN9Calamares13ModuleManagerD2Ev@Base 2.4.5
 _ZN9Calamares14Ui_DebugWindow7setupUiEP7QWidget@Base 2.4.5
 _ZN9Calamares15PythonJobModule8initFromERK4QMapI7QString8QVariantE@Base 2.4.5
 _ZN9Calamares15PythonJobModule8loadSelfEv@Base 2.4.5
 _ZN9Calamares15PythonJobModuleC1Ev@Base 2.4.5
 _ZN9Calamares15PythonJobModuleC2Ev@Base 2.4.5
 _ZN9Calamares15PythonJobModuleD0Ev@Base 2.4.5
 _ZN9Calamares15PythonJobModuleD1Ev@Base 2.4.5
 _ZN9Calamares15PythonJobModuleD2Ev@Base 2.4.5
 _ZN9Calamares16ProcessJobModule8initFromERK4QMapI7QString8QVariantE@Base 2.4.5
 _ZN9Calamares16ProcessJobModule8loadSelfEv@Base 2.4.5
 _ZN9Calamares16ProcessJobModuleC1Ev@Base 2.4.5
 _ZN9Calamares16ProcessJobModuleC2Ev@Base 2.4.5
 _ZN9Calamares16ProcessJobModuleD0Ev@Base 2.4.5
 _ZN9Calamares16ProcessJobModuleD1Ev@Base 2.4.5
 _ZN9Calamares16ProcessJobModuleD2Ev@Base 2.4.5
 _ZN9Calamares17ExecutionViewStep10onActivateEv@Base 2.4.5
 _ZN9Calamares17ExecutionViewStep11qt_metacallEN11QMetaObject4CallEiPPv@Base 2.4.5
 _ZN9Calamares17ExecutionViewStep11qt_metacastEPKc@Base 2.4.5
 _ZN9Calamares17ExecutionViewStep16staticMetaObjectE@Base 2.4.5
 _ZN9Calamares17ExecutionViewStep18updateFromJobQueueEdRK7QString@Base 2.4.5
 _ZN9Calamares17ExecutionViewStep26appendJobModuleInstanceKeyERK7QString@Base 2.4.5
 _ZN9Calamares17ExecutionViewStep4backEv@Base 2.4.5
 _ZN9Calamares17ExecutionViewStep4nextEv@Base 2.4.5
 _ZN9Calamares17ExecutionViewStep6widgetEv@Base 2.4.5
 _ZN9Calamares17ExecutionViewStepC1EP7QObject@Base 2.4.5
 _ZN9Calamares17ExecutionViewStepC2EP7QObject@Base 2.4.5
 _ZN9Calamares17ExecutionViewStepD0Ev@Base 2.4.5
 _ZN9Calamares17ExecutionViewStepD1Ev@Base 2.4.5
 _ZN9Calamares17ExecutionViewStepD2Ev@Base 2.4.5
 _ZN9Calamares6Module14fromDescriptorERK4QMapI7QString8QVariantERKS2_S8_S8_@Base 2.4.5
 _ZN9Calamares6Module16configurationMapEv@Base 2.4.5
 _ZN9Calamares6Module21loadConfigurationFileERK7QString@Base 2.4.5
 _ZN9Calamares6Module8initFromERK4QMapI7QString8QVariantE@Base 2.4.5
 _ZN9Calamares6ModuleC1Ev@Base 2.4.5
 _ZN9Calamares6ModuleC2Ev@Base 2.4.5
 _ZN9Calamares6ModuleD0Ev@Base 2.4.5
 _ZN9Calamares6ModuleD1Ev@Base 2.4.5
 _ZN9Calamares6ModuleD2Ev@Base 2.4.5
 _ZN9Calamares8Branding10s_instanceE@Base 2.4.5
 _ZN9Calamares8Branding11qt_metacallEN11QMetaObject4CallEiPPv@Base 2.4.5
 _ZN9Calamares8Branding11qt_metacastEPKc@Base 2.4.5
 _ZN9Calamares8Branding16staticMetaObjectE@Base 2.4.5
 _ZN9Calamares8Branding19s_imageEntryStringsE@Base 2.4.5
 _ZN9Calamares8Branding19s_styleEntryStringsE@Base 2.4.5
 _ZN9Calamares8Branding20s_stringEntryStringsE@Base 2.4.5
 _ZN9Calamares8Branding4bailERK7QString@Base 2.4.5
 _ZN9Calamares8Branding8instanceEv@Base 2.4.5
 _ZN9Calamares8BrandingC1ERK7QStringP7QObject@Base 2.4.5
 _ZN9Calamares8BrandingC2ERK7QStringP7QObject@Base 2.4.5
 _ZN9Calamares8BrandingD0Ev@Base 2.4.5
 _ZN9Calamares8BrandingD1Ev@Base 2.4.5
 _ZN9Calamares8BrandingD2Ev@Base 2.4.5
 _ZN9Calamares8Settings10s_instanceE@Base 2.4.5
 _ZN9Calamares8Settings11qt_metacallEN11QMetaObject4CallEiPPv@Base 2.4.5
 _ZN9Calamares8Settings11qt_metacastEPKc@Base 2.4.5
 _ZN9Calamares8Settings16staticMetaObjectE@Base 2.4.5
 _ZN9Calamares8Settings8instanceEv@Base 2.4.5
 _ZN9Calamares8SettingsC1ERK7QStringbP7QObject@Base 2.4.5
 _ZN9Calamares8SettingsC2ERK7QStringbP7QObject@Base 2.4.5
 _ZN9Calamares8SettingsD0Ev@Base 2.4.5
 _ZN9Calamares8SettingsD1Ev@Base 2.4.5
 _ZN9Calamares8SettingsD2Ev@Base 2.4.5
 _ZN9Calamares8ViewStep10onActivateEv@Base 2.4.5
 _ZN9Calamares8ViewStep11qt_metacallEN11QMetaObject4CallEiPPv@Base 2.4.5
 _ZN9Calamares8ViewStep11qt_metacastEPKc@Base 2.4.5
 _ZN9Calamares8ViewStep16staticMetaObjectE@Base 2.4.5
 _ZN9Calamares8ViewStep17nextStatusChangedEb@Base 2.4.5
 _ZN9Calamares8ViewStep19setConfigurationMapERK4QMapI7QString8QVariantE@Base 2.4.5
 _ZN9Calamares8ViewStep20setModuleInstanceKeyERK7QString@Base 2.4.5
 _ZN9Calamares8ViewStep4doneEv@Base 2.4.5
 _ZN9Calamares8ViewStep7onLeaveEv@Base 2.4.5
 _ZN9Calamares8ViewStepC1EP7QObject@Base 2.4.5
 _ZN9Calamares8ViewStepC2EP7QObject@Base 2.4.5
 _ZN9Calamares8ViewStepD0Ev@Base 2.4.5
 _ZN9Calamares8ViewStepD1Ev@Base 2.4.5
 _ZN9Calamares8ViewStepD2Ev@Base 2.4.5
 (optional=templinst)_ZN9QtPrivate11QSlotObjectIMN9Calamares11ViewManagerEFvRK7QStringS5_ENS_4ListIJS5_S5_EEEvE4implEiPNS_15QSlotObjectBaseEP7QObjectPPvPb@Base 2.4.5
 (optional=templinst)_ZN9QtPrivate11QSlotObjectIMN9Calamares11ViewManagerEFvvENS_4ListIJEEEvE4implEiPNS_15QSlotObjectBaseEP7QObjectPPvPb@Base 2.4.5
 (optional=templinst)_ZN9QtPrivate11QSlotObjectIMN9Calamares13ModuleManagerEFvvENS_4ListIJEEEvE4implEiPNS_15QSlotObjectBaseEP7QObjectPPvPb@Base 2.4.5
 (optional=templinst)_ZN9QtPrivate11QSlotObjectIMN9Calamares17ExecutionViewStepEFvdRK7QStringENS_4ListIJdS5_EEEvE4implEiPNS_15QSlotObjectBaseEP7QObjectPPvPb@Base 2.4.5
 (optional=templinst)_ZN9QtPrivate16ConverterFunctorI14QSharedPointerIN9Calamares3JobEEP7QObjectNS_27QSmartPointerConvertFunctorIS4_EEE7convertEPKNS_25AbstractConverterFunctionEPKvPv@Base 2.4.5
 (optional=templinst)_ZN9QtPrivate16ConverterFunctorI14QSharedPointerIN9Calamares3JobEEP7QObjectNS_27QSmartPointerConvertFunctorIS4_EEED1Ev@Base 2.4.5
 (optional=templinst)_ZN9QtPrivate16ConverterFunctorI14QSharedPointerIN9Calamares3JobEEP7QObjectNS_27QSmartPointerConvertFunctorIS4_EEED2Ev@Base 2.4.5
 (optional=templinst)_ZN9QtPrivate16ConverterFunctorI5QListI14QSharedPointerIN9Calamares3JobEEEN17QtMetaTypePrivate23QSequentialIterableImplENS7_33QSequentialIterableConvertFunctorIS6_EEE7convertEPKNS_25AbstractConverterFunctionEPKvPv@Base 2.4.5
 (optional=templinst)_ZN9QtPrivate16ConverterFunctorI5QListI14QSharedPointerIN9Calamares3JobEEEN17QtMetaTypePrivate23QSequentialIterableImplENS7_33QSequentialIterableConvertFunctorIS6_EEED1Ev@Base 2.4.5
 (optional=templinst)_ZN9QtPrivate16ConverterFunctorI5QListI14QSharedPointerIN9Calamares3JobEEEN17QtMetaTypePrivate23QSequentialIterableImplENS7_33QSequentialIterableConvertFunctorIS6_EEED2Ev@Base 2.4.5
 _ZNK10QJsonModel10headerDataEiN2Qt11OrientationEi@Base 2.4.5
 _ZNK10QJsonModel10metaObjectEv@Base 2.4.5
 _ZNK10QJsonModel11columnCountERK11QModelIndex@Base 2.4.5
 _ZNK10QJsonModel4dataERK11QModelIndexi@Base 2.4.5
 _ZNK10QJsonModel5indexEiiRK11QModelIndex@Base 2.4.5
 _ZNK10QJsonModel6parentERK11QModelIndex@Base 2.4.5
 _ZNK10QJsonModel8rowCountERK11QModelIndex@Base 2.4.5
 _ZNK13QJsonTreeItem10childCountEv@Base 2.4.5
 _ZNK13QJsonTreeItem3keyEv@Base 2.4.5
 _ZNK13QJsonTreeItem3rowEv@Base 2.4.5
 _ZNK13QJsonTreeItem4typeEv@Base 2.4.5
 _ZNK13QJsonTreeItem5valueEv@Base 2.4.5
 _ZNK13WaitingWidget10metaObjectEv@Base 2.4.5
 _ZNK14ClickableLabel10metaObjectEv@Base 2.4.5
 _ZNK16QtWaitingSpinner10metaObjectEv@Base 2.4.5
 _ZNK21FixedAspectRatioLabel10metaObjectEv@Base 2.4.5
 _ZNK4YAML4Node16EnsureNodeExistsEv@Base 2.4.5
 (optional=templinst)_ZNK5QHashI7QStringS_IiS_Ix7QPixmapEEE8findNodeERKS0_Pj@Base 2.4.5
 (optional=templinst)_ZNK5QHashIN10QJsonValue4TypeE5QIconE8findNodeERKS1_j@Base 2.4.5
 (optional=templinst)_ZNK5QHashIiS_Ix7QPixmapEE8findNodeERKij@Base 2.4.5
 (optional=templinst)_ZNK5QHashIx7QPixmapE8findNodeERKxPj@Base 2.4.5
 (optional=templinst)_ZNK5QListI7QStringE5valueEi@Base 2.4.5
 (optional=templinst)_ZNK8QMapDataI7QString4QMapIS0_8QVariantEE8findNodeERKS0_@Base 2.4.5
 (optional=templinst)_ZNK8QMapDataI7QString8QVariantE8findNodeERKS0_@Base 2.4.5
 (optional=templinst)_ZNK8QMapDataI7QStringPN9Calamares6ModuleEE8findNodeERKS0_@Base 2.4.5
 (optional=templinst)_ZNK8QMapDataI7QStringS0_E8findNodeERKS0_@Base 2.4.5
 (optional=templinst)_ZNK8QMapNodeI7QString4QMapIS0_8QVariantEE4copyEP8QMapDataIS0_S3_E@Base 2.4.5
 (optional=templinst)_ZNK8QMapNodeI7QString8QVariantE4copyEP8QMapDataIS0_S1_E@Base 2.4.5
 (optional=templinst)_ZNK8QMapNodeI7QStringPN9Calamares6ModuleEE4copyEP8QMapDataIS0_S3_E@Base 2.4.5
 (optional=templinst)_ZNK8QMapNodeI7QStringS0_E4copyEP8QMapDataIS0_S0_E@Base 2.4.5
 _ZNK9Calamares10ViewModule4jobsEv@Base 2.4.5
 _ZNK9Calamares10ViewModule4typeEv@Base 2.4.5
 _ZNK9Calamares10ViewModule9interfaceEv@Base 2.4.5
 _ZNK9Calamares11DebugWindow10metaObjectEv@Base 2.4.5
 _ZNK9Calamares11ViewManager10metaObjectEv@Base 2.4.5
 _ZNK9Calamares11ViewManager11currentStepEv@Base 2.4.5
 _ZNK9Calamares11ViewManager16currentStepIndexEv@Base 2.4.5
 _ZNK9Calamares11ViewManager9viewStepsEv@Base 2.4.5
 _ZNK9Calamares12AbstractPage10metaObjectEv@Base 2.4.5
 _ZNK9Calamares12CppJobModule4jobsEv@Base 2.4.5
 _ZNK9Calamares12CppJobModule4typeEv@Base 2.4.5
 _ZNK9Calamares12CppJobModule9interfaceEv@Base 2.4.5
 _ZNK9Calamares13ModuleManager10metaObjectEv@Base 2.4.5
 _ZNK9Calamares15PythonJobModule4jobsEv@Base 2.4.5
 _ZNK9Calamares15PythonJobModule4typeEv@Base 2.4.5
 _ZNK9Calamares15PythonJobModule9interfaceEv@Base 2.4.5
 _ZNK9Calamares16ProcessJobModule4jobsEv@Base 2.4.5
 _ZNK9Calamares16ProcessJobModule4typeEv@Base 2.4.5
 _ZNK9Calamares16ProcessJobModule9interfaceEv@Base 2.4.5
 _ZNK9Calamares17ExecutionViewStep10metaObjectEv@Base 2.4.5
 _ZNK9Calamares17ExecutionViewStep10prettyNameEv@Base 2.4.5
 _ZNK9Calamares17ExecutionViewStep13isAtBeginningEv@Base 2.4.5
 _ZNK9Calamares17ExecutionViewStep13isBackEnabledEv@Base 2.4.5
 _ZNK9Calamares17ExecutionViewStep13isNextEnabledEv@Base 2.4.5
 _ZNK9Calamares17ExecutionViewStep4jobsEv@Base 2.4.5
 _ZNK9Calamares17ExecutionViewStep7isAtEndEv@Base 2.4.5
 _ZNK9Calamares6Module10instanceIdEv@Base 2.4.5
 _ZNK9Calamares6Module11instanceKeyEv@Base 2.4.5
 _ZNK9Calamares6Module15requiredModulesEv@Base 2.4.5
 _ZNK9Calamares6Module4nameEv@Base 2.4.5
 _ZNK9Calamares6Module8isLoadedEv@Base 2.4.5
 _ZNK9Calamares6Module8locationEv@Base 2.4.5
 _ZNK9Calamares8Branding10metaObjectEv@Base 2.4.5
 _ZNK9Calamares8Branding10setGlobalsEPNS_13GlobalStorageE@Base 2.4.5
 _ZNK9Calamares8Branding11styleStringENS0_10StyleEntryE@Base 2.4.5
 _ZNK9Calamares8Branding13componentNameEv@Base 2.4.5
 _ZNK9Calamares8Branding13slideshowPathEv@Base 2.4.5
 _ZNK9Calamares8Branding14descriptorPathEv@Base 2.4.5
 _ZNK9Calamares8Branding18componentDirectoryEv@Base 2.4.5
 _ZNK9Calamares8Branding22translationsPathPrefixEv@Base 2.4.5
 _ZNK9Calamares8Branding5imageENS0_10ImageEntryERK5QSize@Base 2.4.5
 _ZNK9Calamares8Branding6stringENS0_11StringEntryE@Base 2.4.5
 _ZNK9Calamares8Branding9imagePathENS0_10ImageEntryE@Base 2.4.5
 _ZNK9Calamares8Settings10metaObjectEv@Base 2.4.5
 _ZNK9Calamares8Settings15modulesSequenceEv@Base 2.4.5
 _ZNK9Calamares8Settings18modulesSearchPathsEv@Base 2.4.5
 _ZNK9Calamares8Settings21brandingComponentNameEv@Base 2.4.5
 _ZNK9Calamares8Settings21customModuleInstancesEv@Base 2.4.5
 _ZNK9Calamares8Settings25showPromptBeforeExecutionEv@Base 2.4.5
 _ZNK9Calamares8Settings8doChrootEv@Base 2.4.5
 _ZNK9Calamares8Settings9debugModeEv@Base 2.4.5
 _ZNK9Calamares8ViewStep10metaObjectEv@Base 2.4.5
 _ZNK9Calamares8ViewStep12prettyStatusEv@Base 2.4.5
 _ZNK9Calamares8ViewStep19createSummaryWidgetEv@Base 2.4.5
 (optional=templinst)_ZNSt7__cxx1115basic_stringbufIcSt11char_traitsIcESaIcEED0Ev@Base 2.4.5
 (optional=templinst)_ZNSt7__cxx1115basic_stringbufIcSt11char_traitsIcESaIcEED1Ev@Base 2.4.5
 (optional=templinst)_ZNSt7__cxx1115basic_stringbufIcSt11char_traitsIcESaIcEED2Ev@Base 2.4.5
 (optional=templinst)_ZNSt8_Rb_treeIN5boost10shared_ptrIN4YAML6detail4nodeEEES5_St9_IdentityIS5_ESt4lessIS5_ESaIS5_EE8_M_eraseEPSt13_Rb_tree_nodeIS5_E@Base 2.4.5
 (optional=templinst)_ZNSt8_Rb_treeIPN4YAML6detail4nodeES3_St9_IdentityIS3_ESt4lessIS3_ESaIS3_EE16_M_insert_uniqueIS3_EESt4pairISt17_Rb_tree_iteratorIS3_EbEOT_@Base 2.4.5
 (optional=templinst)_ZNSt8_Rb_treeIPN4YAML6detail4nodeES3_St9_IdentityIS3_ESt4lessIS3_ESaIS3_EE8_M_eraseEPSt13_Rb_tree_nodeIS3_E@Base 2.4.5
 _ZTI10QJsonModel@Base 2.4.5
 _ZTI13QJsonTreeItem@Base 2.4.5
 _ZTI13WaitingWidget@Base 2.4.5
 _ZTI14ClickableLabel@Base 2.4.5
 _ZTI16QtWaitingSpinner@Base 2.4.5
 _ZTI21FixedAspectRatioLabel@Base 2.4.5
 _ZTIN4YAML11InvalidNodeE@Base 2.4.5
 _ZTIN4YAML12BadSubscriptE@Base 2.4.5
 _ZTIN4YAML13BadConversionE@Base 2.4.5
 _ZTIN4YAML18TypedBadConversionINSt7__cxx1112basic_stringIcSt11char_traitsIcESaIcEEEEE@Base 2.4.5
 _ZTIN4YAML18TypedBadConversionIbEE@Base 2.4.5
 _ZTIN4YAML23RepresentationExceptionE@Base 2.4.5
 _ZTIN4YAML9ExceptionE@Base 2.4.5
 _ZTIN5boost6detail15sp_counted_baseE@Base 2.4.5
 _ZTIN5boost6detail17sp_counted_impl_pIN4YAML6detail13memory_holderEEE@Base 2.4.5
 _ZTIN5boost6detail17sp_counted_impl_pIN4YAML6detail6memoryEEE@Base 2.4.5
 _ZTIN6Logger6CDebugE@Base 2.4.5
 _ZTIN9Calamares10ViewModuleE@Base 2.4.5
 _ZTIN9Calamares11DebugWindowE@Base 2.4.5
 _ZTIN9Calamares11ViewManagerE@Base 2.4.5
 _ZTIN9Calamares12AbstractPageE@Base 2.4.5
 _ZTIN9Calamares12CppJobModuleE@Base 2.4.5
 _ZTIN9Calamares13ModuleManagerE@Base 2.4.5
 _ZTIN9Calamares14Ui_DebugWindowE@Base 2.4.5
 _ZTIN9Calamares15PythonJobModuleE@Base 2.4.5
 _ZTIN9Calamares16ProcessJobModuleE@Base 2.4.5
 _ZTIN9Calamares17ExecutionViewStepE@Base 2.4.5
 _ZTIN9Calamares2Ui11DebugWindowE@Base 2.4.5
 _ZTIN9Calamares6ModuleE@Base 2.4.5
 _ZTIN9Calamares8BrandingE@Base 2.4.5
 _ZTIN9Calamares8SettingsE@Base 2.4.5
 _ZTIN9Calamares8ViewStepE@Base 2.4.5
 _ZTS10QJsonModel@Base 2.4.5
 _ZTS13QJsonTreeItem@Base 2.4.5
 _ZTS13WaitingWidget@Base 2.4.5
 _ZTS14ClickableLabel@Base 2.4.5
 _ZTS16QtWaitingSpinner@Base 2.4.5
 _ZTS21FixedAspectRatioLabel@Base 2.4.5
 _ZTSN4YAML11InvalidNodeE@Base 2.4.5
 _ZTSN4YAML12BadSubscriptE@Base 2.4.5
 _ZTSN4YAML13BadConversionE@Base 2.4.5
 _ZTSN4YAML18TypedBadConversionINSt7__cxx1112basic_stringIcSt11char_traitsIcESaIcEEEEE@Base 2.4.5
 _ZTSN4YAML18TypedBadConversionIbEE@Base 2.4.5
 _ZTSN4YAML23RepresentationExceptionE@Base 2.4.5
 _ZTSN4YAML9ExceptionE@Base 2.4.5
 _ZTSN5boost6detail15sp_counted_baseE@Base 2.4.5
 _ZTSN5boost6detail17sp_counted_impl_pIN4YAML6detail13memory_holderEEE@Base 2.4.5
 _ZTSN5boost6detail17sp_counted_impl_pIN4YAML6detail6memoryEEE@Base 2.4.5
 _ZTSN6Logger6CDebugE@Base 2.4.5
 _ZTSN9Calamares10ViewModuleE@Base 2.4.5
 _ZTSN9Calamares11DebugWindowE@Base 2.4.5
 _ZTSN9Calamares11ViewManagerE@Base 2.4.5
 _ZTSN9Calamares12AbstractPageE@Base 2.4.5
 _ZTSN9Calamares12CppJobModuleE@Base 2.4.5
 _ZTSN9Calamares13ModuleManagerE@Base 2.4.5
 _ZTSN9Calamares14Ui_DebugWindowE@Base 2.4.5
 _ZTSN9Calamares15PythonJobModuleE@Base 2.4.5
 _ZTSN9Calamares16ProcessJobModuleE@Base 2.4.5
 _ZTSN9Calamares17ExecutionViewStepE@Base 2.4.5
 _ZTSN9Calamares2Ui11DebugWindowE@Base 2.4.5
 _ZTSN9Calamares6ModuleE@Base 2.4.5
 _ZTSN9Calamares8BrandingE@Base 2.4.5
 _ZTSN9Calamares8SettingsE@Base 2.4.5
 _ZTSN9Calamares8ViewStepE@Base 2.4.5
 _ZTV10QJsonModel@Base 2.4.5
 _ZTV13QJsonTreeItem@Base 2.4.5
 _ZTV13WaitingWidget@Base 2.4.5
 _ZTV14ClickableLabel@Base 2.4.5
 _ZTV16QtWaitingSpinner@Base 2.4.5
 _ZTV21FixedAspectRatioLabel@Base 2.4.5
 _ZTVN4YAML11InvalidNodeE@Base 2.4.5
 _ZTVN4YAML12BadSubscriptE@Base 2.4.5
 _ZTVN4YAML13BadConversionE@Base 2.4.5
 _ZTVN4YAML18TypedBadConversionINSt7__cxx1112basic_stringIcSt11char_traitsIcESaIcEEEEE@Base 2.4.5
 _ZTVN4YAML18TypedBadConversionIbEE@Base 2.4.5
 _ZTVN4YAML23RepresentationExceptionE@Base 2.4.5
 _ZTVN4YAML9ExceptionE@Base 2.4.5
 _ZTVN5boost6detail17sp_counted_impl_pIN4YAML6detail13memory_holderEEE@Base 2.4.5
 _ZTVN5boost6detail17sp_counted_impl_pIN4YAML6detail6memoryEEE@Base 2.4.5
 _ZTVN6Logger6CDebugE@Base 2.4.5
 _ZTVN9Calamares10ViewModuleE@Base 2.4.5
 _ZTVN9Calamares11DebugWindowE@Base 2.4.5
 _ZTVN9Calamares11ViewManagerE@Base 2.4.5
 _ZTVN9Calamares12AbstractPageE@Base 2.4.5
 _ZTVN9Calamares12CppJobModuleE@Base 2.4.5
 _ZTVN9Calamares13ModuleManagerE@Base 2.4.5
 _ZTVN9Calamares15PythonJobModuleE@Base 2.4.5
 _ZTVN9Calamares16ProcessJobModuleE@Base 2.4.5
 _ZTVN9Calamares17ExecutionViewStepE@Base 2.4.5
 _ZTVN9Calamares6ModuleE@Base 2.4.5
 _ZTVN9Calamares8BrandingE@Base 2.4.5
 _ZTVN9Calamares8SettingsE@Base 2.4.5
 _ZTVN9Calamares8ViewStepE@Base 2.4.5
 (optional=templinst)_ZZN11QMetaTypeIdI5QListI14QSharedPointerIN9Calamares3JobEEEE14qt_metatype_idEvE11metatype_id@Base 2.4.5
 (optional=templinst)_ZZN11QMetaTypeIdIN17QtMetaTypePrivate23QSequentialIterableImplEE14qt_metatype_idEvE11metatype_id@Base 2.4.5
 (optional=templinst)_ZZN9QtPrivate19ValueTypeIsMetaTypeI5QListI14QSharedPointerIN9Calamares3JobEEELb1EE17registerConverterEiE1f@Base 2.4.5
 (optional=templinst)_ZZN9QtPrivate26MetaTypeSmartPointerHelperI14QSharedPointerIN9Calamares3JobEEvE17registerConverterEiE1f@Base 2.4.5
 (optional=templinst)_ZZN9QtPrivate29SharedPointerMetaTypeIdHelperI14QSharedPointerIN9Calamares3JobEELb1EE14qt_metatype_idEvE11metatype_id@Base 2.4.5
 _ZZZN9Calamares14Ui_DebugWindow7setupUiEP7QWidgetENKUlvE0_clEvE15qstring_literal@Base 2.4.5
 _ZZZN9Calamares14Ui_DebugWindow7setupUiEP7QWidgetENKUlvE10_clEvE15qstring_literal@Base 2.4.5
 _ZZZN9Calamares14Ui_DebugWindow7setupUiEP7QWidgetENKUlvE11_clEvE15qstring_literal@Base 2.4.5
 _ZZZN9Calamares14Ui_DebugWindow7setupUiEP7QWidgetENKUlvE12_clEvE15qstring_literal@Base 2.4.5
 _ZZZN9Calamares14Ui_DebugWindow7setupUiEP7QWidgetENKUlvE13_clEvE15qstring_literal@Base 2.4.5
 _ZZZN9Calamares14Ui_DebugWindow7setupUiEP7QWidgetENKUlvE14_clEvE15qstring_literal@Base 2.4.5
 _ZZZN9Calamares14Ui_DebugWindow7setupUiEP7QWidgetENKUlvE15_clEvE15qstring_literal@Base 2.4.5
 _ZZZN9Calamares14Ui_DebugWindow7setupUiEP7QWidgetENKUlvE1_clEvE15qstring_literal@Base 2.4.5
 _ZZZN9Calamares14Ui_DebugWindow7setupUiEP7QWidgetENKUlvE2_clEvE15qstring_literal@Base 2.4.5
 _ZZZN9Calamares14Ui_DebugWindow7setupUiEP7QWidgetENKUlvE3_clEvE15qstring_literal@Base 2.4.5
 _ZZZN9Calamares14Ui_DebugWindow7setupUiEP7QWidgetENKUlvE4_clEvE15qstring_literal@Base 2.4.5
 _ZZZN9Calamares14Ui_DebugWindow7setupUiEP7QWidgetENKUlvE5_clEvE15qstring_literal@Base 2.4.5
 _ZZZN9Calamares14Ui_DebugWindow7setupUiEP7QWidgetENKUlvE6_clEvE15qstring_literal@Base 2.4.5
 _ZZZN9Calamares14Ui_DebugWindow7setupUiEP7QWidgetENKUlvE7_clEvE15qstring_literal@Base 2.4.5
 _ZZZN9Calamares14Ui_DebugWindow7setupUiEP7QWidgetENKUlvE8_clEvE15qstring_literal@Base 2.4.5
 _ZZZN9Calamares14Ui_DebugWindow7setupUiEP7QWidgetENKUlvE9_clEvE15qstring_literal@Base 2.4.5
 _ZZZN9Calamares14Ui_DebugWindow7setupUiEP7QWidgetENKUlvE_clEvE15qstring_literal@Base 2.4.5
 _ZrsRKN4YAML4NodeER11QStringList@Base 2.4.5
 (c++)"non-virtual thunk to Calamares::AbstractPage::~AbstractPage()@Base" 2.4.5
 (c++)"non-virtual thunk to Calamares::DebugWindow::~DebugWindow()@Base" 2.4.5
 (c++)"non-virtual thunk to ClickableLabel::~ClickableLabel()@Base" 2.4.5
 (c++)"non-virtual thunk to FixedAspectRatioLabel::~FixedAspectRatioLabel()@Base" 2.4.5
 (c++)"non-virtual thunk to QtWaitingSpinner::~QtWaitingSpinner()@Base" 2.4.5
 (c++)"non-virtual thunk to WaitingWidget::~WaitingWidget()@Base" 2.4.5
