libcalamares.so.2.4.5 libcalamares2.4.5 #MINVER#
 PyInit_libcalamares@Base 2.4.5
 _Z22_kdCheckQtVersion_impliii@Base 2.4.5
 _Z24init_module_libcalamaresv@Base 2.4.5
 _ZGVN5boost6python9converter6detail15registered_baseIRVKN15CalamaresPython18PythonJobInterfaceEE10convertersE@Base 2.4.5
 _ZGVN5boost6python9converter6detail15registered_baseIRVKN15CalamaresPython26GlobalStoragePythonWrapperEE10convertersE@Base 2.4.5
 _ZGVN5boost6python9converter6detail15registered_baseIRVKN9Calamares13GlobalStorageEE10convertersE@Base 2.4.5
 _ZGVN5boost6python9converter6detail15registered_baseIRVKN9Calamares9PythonJobEE10convertersE@Base 2.4.5
 _ZGVN5boost6python9converter6detail15registered_baseIRVKNSt7__cxx1112basic_stringIcSt11char_traitsIcESaIcEEEE10convertersE@Base 2.4.5
 _ZGVN5boost6python9converter6detail15registered_baseIRVKbE10convertersE@Base 2.4.5
 _ZGVN5boost6python9converter6detail15registered_baseIRVKdE10convertersE@Base 2.4.5
 _ZGVN5boost6python9converter6detail15registered_baseIRVKiE10convertersE@Base 2.4.5
 _ZGVZN5boost6python6detail12caller_arityILj1EE4implIMN15CalamaresPython26GlobalStoragePythonWrapperEKFNS0_4listEvENS0_21default_call_policiesENS_3mpl7vector2IS7_RS6_EEE9signatureEvE3ret@Base 2.4.5
 _ZGVZN5boost6python6detail12caller_arityILj1EE4implIMN15CalamaresPython26GlobalStoragePythonWrapperEKFivENS0_21default_call_policiesENS_3mpl7vector2IiRS6_EEE9signatureEvE3ret@Base 2.4.5
 _ZGVZN5boost6python6detail12caller_arityILj1EE4implINS1_6memberINS0_4dictEN15CalamaresPython18PythonJobInterfaceEEENS0_19return_value_policyINS0_15return_by_valueENS0_21default_call_policiesEEENS_3mpl7vector2IRS6_RS8_EEE9signatureEvE3ret@Base 2.4.5
 _ZGVZN5boost6python6detail12caller_arityILj1EE4implINS1_6memberINSt7__cxx1112basic_stringIcSt11char_traitsIcESaIcEEEN15CalamaresPython18PythonJobInterfaceEEENS0_19return_value_policyINS0_15return_by_valueENS0_21default_call_policiesEEENS_3mpl7vector2IRSB_RSD_EEE9signatureEvE3ret@Base 2.4.5
 _ZGVZN5boost6python6detail12caller_arityILj1EE4implIPFNSt7__cxx1112basic_stringIcSt11char_traitsIcESaIcEEERKNS0_4listEENS0_21default_call_policiesENS_3mpl7vector2ISA_SD_EEE9signatureEvE3ret@Base 2.4.5
 _ZGVZN5boost6python6detail12caller_arityILj1EE4implIPFNSt7__cxx1112basic_stringIcSt11char_traitsIcESaIcEEERKSA_ENS0_21default_call_policiesENS_3mpl7vector2ISA_SC_EEE9signatureEvE3ret@Base 2.4.5
 _ZGVZN5boost6python6detail12caller_arityILj1EE4implIPFiRKNS0_4listEENS0_21default_call_policiesENS_3mpl7vector2IiS7_EEE9signatureEvE3ret@Base 2.4.5
 _ZGVZN5boost6python6detail12caller_arityILj1EE4implIPFiRKNSt7__cxx1112basic_stringIcSt11char_traitsIcESaIcEEEENS0_21default_call_policiesENS_3mpl7vector2IiSC_EEE9signatureEvE3ret@Base 2.4.5
 _ZGVZN5boost6python6detail12caller_arityILj2EE4implIMN15CalamaresPython26GlobalStoragePythonWrapperEFiRKNSt7__cxx1112basic_stringIcSt11char_traitsIcESaIcEEEENS0_21default_call_policiesENS_3mpl7vector3IiRS6_SE_EEE9signatureEvE3ret@Base 2.4.5
 _ZGVZN5boost6python6detail12caller_arityILj2EE4implIMN15CalamaresPython26GlobalStoragePythonWrapperEKFNS0_3api6objectERKNSt7__cxx1112basic_stringIcSt11char_traitsIcESaIcEEEENS0_21default_call_policiesENS_3mpl7vector3IS8_RS6_SG_EEE9signatureEvE3ret@Base 2.4.5
 _ZGVZN5boost6python6detail12caller_arityILj2EE4implIMN15CalamaresPython26GlobalStoragePythonWrapperEKFbRKNSt7__cxx1112basic_stringIcSt11char_traitsIcESaIcEEEENS0_21default_call_policiesENS_3mpl7vector3IbRS6_SE_EEE9signatureEvE3ret@Base 2.4.5
 _ZGVZN5boost6python6detail12caller_arityILj2EE4implIPFNSt7__cxx1112basic_stringIcSt11char_traitsIcESaIcEEERKNS0_4listERKSA_ENS0_21default_call_policiesENS_3mpl7vector3ISA_SD_SF_EEE9signatureEvE3ret@Base 2.4.5
 _ZGVZN5boost6python6detail12caller_arityILj2EE4implIPFNSt7__cxx1112basic_stringIcSt11char_traitsIcESaIcEEERKSA_SC_ENS0_21default_call_policiesENS_3mpl7vector3ISA_SC_SC_EEE9signatureEvE3ret@Base 2.4.5
 _ZGVZN5boost6python6detail12caller_arityILj2EE4implIPFiRKNS0_4listERKNSt7__cxx1112basic_stringIcSt11char_traitsIcESaIcEEEENS0_21default_call_policiesENS_3mpl7vector3IiS7_SF_EEE9signatureEvE3ret@Base 2.4.5
 _ZGVZN5boost6python6detail12caller_arityILj2EE4implIPFiRKNSt7__cxx1112basic_stringIcSt11char_traitsIcESaIcEEESC_ENS0_21default_call_policiesENS_3mpl7vector3IiSC_SC_EEE9signatureEvE3ret@Base 2.4.5
 _ZGVZN5boost6python6detail12caller_arityILj3EE4implIPFNSt7__cxx1112basic_stringIcSt11char_traitsIcESaIcEEERKNS0_4listERKSA_iENS0_21default_call_policiesENS_3mpl7vector4ISA_SD_SF_iEEE9signatureEvE3ret@Base 2.4.5
 _ZGVZN5boost6python6detail12caller_arityILj3EE4implIPFNSt7__cxx1112basic_stringIcSt11char_traitsIcESaIcEEERKSA_SC_iENS0_21default_call_policiesENS_3mpl7vector4ISA_SC_SC_iEEE9signatureEvE3ret@Base 2.4.5
 _ZGVZN5boost6python6detail12caller_arityILj3EE4implIPFiRKNS0_4listERKNSt7__cxx1112basic_stringIcSt11char_traitsIcESaIcEEEiENS0_21default_call_policiesENS_3mpl7vector4IiS7_SF_iEEE9signatureEvE3ret@Base 2.4.5
 _ZGVZN5boost6python6detail12caller_arityILj3EE4implIPFiRKNSt7__cxx1112basic_stringIcSt11char_traitsIcESaIcEEESC_SC_ENS0_21default_call_policiesENS_3mpl7vector4IiSC_SC_SC_EEE9signatureEvE3ret@Base 2.4.5
 _ZGVZN5boost6python6detail12caller_arityILj3EE4implIPFiRKNSt7__cxx1112basic_stringIcSt11char_traitsIcESaIcEEESC_iENS0_21default_call_policiesENS_3mpl7vector4IiSC_SC_iEEE9signatureEvE3ret@Base 2.4.5
 _ZGVZN5boost6python6detail12caller_arityILj4EE4implIPFiRKNSt7__cxx1112basic_stringIcSt11char_traitsIcESaIcEEESC_SC_SC_ENS0_21default_call_policiesENS_3mpl7vector5IiSC_SC_SC_SC_EEE9signatureEvE3ret@Base 2.4.5
 _ZGVZN5boost6python6detail15signature_arityILj1EE4implINS_3mpl7vector2INS0_4listERN15CalamaresPython26GlobalStoragePythonWrapperEEEE8elementsEvE6result@Base 2.4.5
 _ZGVZN5boost6python6detail15signature_arityILj1EE4implINS_3mpl7vector2INSt7__cxx1112basic_stringIcSt11char_traitsIcESaIcEEERKNS0_4listEEEE8elementsEvE6result@Base 2.4.5
 _ZGVZN5boost6python6detail15signature_arityILj1EE4implINS_3mpl7vector2INSt7__cxx1112basic_stringIcSt11char_traitsIcESaIcEEERKSC_EEE8elementsEvE6result@Base 2.4.5
 _ZGVZN5boost6python6detail15signature_arityILj1EE4implINS_3mpl7vector2IRNS0_4dictERN15CalamaresPython18PythonJobInterfaceEEEE8elementsEvE6result@Base 2.4.5
 _ZGVZN5boost6python6detail15signature_arityILj1EE4implINS_3mpl7vector2IRNSt7__cxx1112basic_stringIcSt11char_traitsIcESaIcEEERN15CalamaresPython18PythonJobInterfaceEEEE8elementsEvE6result@Base 2.4.5
 _ZGVZN5boost6python6detail15signature_arityILj1EE4implINS_3mpl7vector2IiRKNS0_4listEEEE8elementsEvE6result@Base 2.4.5
 _ZGVZN5boost6python6detail15signature_arityILj1EE4implINS_3mpl7vector2IiRKNSt7__cxx1112basic_stringIcSt11char_traitsIcESaIcEEEEEE8elementsEvE6result@Base 2.4.5
 _ZGVZN5boost6python6detail15signature_arityILj1EE4implINS_3mpl7vector2IiRN15CalamaresPython26GlobalStoragePythonWrapperEEEE8elementsEvE6result@Base 2.4.5
 _ZGVZN5boost6python6detail15signature_arityILj1EE4implINS_3mpl7vector2IvRKNSt7__cxx1112basic_stringIcSt11char_traitsIcESaIcEEEEEE8elementsEvE6result@Base 2.4.5
 _ZGVZN5boost6python6detail15signature_arityILj2EE4implINS_3mpl7vector3INS0_3api6objectERN15CalamaresPython26GlobalStoragePythonWrapperERKNSt7__cxx1112basic_stringIcSt11char_traitsIcESaIcEEEEEE8elementsEvE6result@Base 2.4.5
 _ZGVZN5boost6python6detail15signature_arityILj2EE4implINS_3mpl7vector3INSt7__cxx1112basic_stringIcSt11char_traitsIcESaIcEEERKNS0_4listERKSC_EEE8elementsEvE6result@Base 2.4.5
 _ZGVZN5boost6python6detail15signature_arityILj2EE4implINS_3mpl7vector3INSt7__cxx1112basic_stringIcSt11char_traitsIcESaIcEEERKSC_SE_EEE8elementsEvE6result@Base 2.4.5
 _ZGVZN5boost6python6detail15signature_arityILj2EE4implINS_3mpl7vector3IbRN15CalamaresPython26GlobalStoragePythonWrapperERKNSt7__cxx1112basic_stringIcSt11char_traitsIcESaIcEEEEEE8elementsEvE6result@Base 2.4.5
 _ZGVZN5boost6python6detail15signature_arityILj2EE4implINS_3mpl7vector3IiRKNS0_4listERKNSt7__cxx1112basic_stringIcSt11char_traitsIcESaIcEEEEEE8elementsEvE6result@Base 2.4.5
 _ZGVZN5boost6python6detail15signature_arityILj2EE4implINS_3mpl7vector3IiRKNSt7__cxx1112basic_stringIcSt11char_traitsIcESaIcEEESE_EEE8elementsEvE6result@Base 2.4.5
 _ZGVZN5boost6python6detail15signature_arityILj2EE4implINS_3mpl7vector3IiRN15CalamaresPython26GlobalStoragePythonWrapperERKNSt7__cxx1112basic_stringIcSt11char_traitsIcESaIcEEEEEE8elementsEvE6result@Base 2.4.5
 _ZGVZN5boost6python6detail15signature_arityILj2EE4implINS_3mpl7vector3IvP7_objectPN9Calamares13GlobalStorageEEEE8elementsEvE6result@Base 2.4.5
 _ZGVZN5boost6python6detail15signature_arityILj2EE4implINS_3mpl7vector3IvP7_objectPN9Calamares9PythonJobEEEE8elementsEvE6result@Base 2.4.5
 _ZGVZN5boost6python6detail15signature_arityILj2EE4implINS_3mpl7vector3IvRN15CalamaresPython18PythonJobInterfaceEdEEE8elementsEvE6result@Base 2.4.5
 _ZGVZN5boost6python6detail15signature_arityILj3EE4implINS_3mpl7vector4INSt7__cxx1112basic_stringIcSt11char_traitsIcESaIcEEERKNS0_4listERKSC_iEEE8elementsEvE6result@Base 2.4.5
 _ZGVZN5boost6python6detail15signature_arityILj3EE4implINS_3mpl7vector4INSt7__cxx1112basic_stringIcSt11char_traitsIcESaIcEEERKSC_SE_iEEE8elementsEvE6result@Base 2.4.5
 _ZGVZN5boost6python6detail15signature_arityILj3EE4implINS_3mpl7vector4IiRKNS0_4listERKNSt7__cxx1112basic_stringIcSt11char_traitsIcESaIcEEEiEEE8elementsEvE6result@Base 2.4.5
 _ZGVZN5boost6python6detail15signature_arityILj3EE4implINS_3mpl7vector4IiRKNSt7__cxx1112basic_stringIcSt11char_traitsIcESaIcEEESE_SE_EEE8elementsEvE6result@Base 2.4.5
 _ZGVZN5boost6python6detail15signature_arityILj3EE4implINS_3mpl7vector4IiRKNSt7__cxx1112basic_stringIcSt11char_traitsIcESaIcEEESE_iEEE8elementsEvE6result@Base 2.4.5
 _ZGVZN5boost6python6detail15signature_arityILj3EE4implINS_3mpl7vector4IvRN15CalamaresPython26GlobalStoragePythonWrapperERKNSt7__cxx1112basic_stringIcSt11char_traitsIcESaIcEEERKNS0_3api6objectEEEE8elementsEvE6result@Base 2.4.5
 _ZGVZN5boost6python6detail15signature_arityILj4EE4implINS_3mpl7vector5IiRKNSt7__cxx1112basic_stringIcSt11char_traitsIcESaIcEEESE_SE_SE_EEE8elementsEvE6result@Base 2.4.5
 _ZN10QByteArrayD1Ev@Base 2.4.5
 _ZN10QByteArrayD2Ev@Base 2.4.5
 _ZN11ProcessInfo12setArgumentsERK11QStringList@Base 2.4.5
 _ZN11QStringListD1Ev@Base 2.4.5
 _ZN11QStringListD2Ev@Base 2.4.5
 _ZN14CalamaresUtils10appDataDirEv@Base 2.4.5
 _ZN14CalamaresUtils12Retranslator11eventFilterEP7QObjectP6QEvent@Base 2.4.5
 _ZN14CalamaresUtils12Retranslator11qt_metacallEN11QMetaObject4CallEiPPv@Base 2.4.5
 _ZN14CalamaresUtils12Retranslator11qt_metacastEPKc@Base 2.4.5
 _ZN14CalamaresUtils12Retranslator16staticMetaObjectE@Base 2.4.5
 _ZN14CalamaresUtils12Retranslator18attachRetranslatorEP7QObjectSt8functionIFvvEE@Base 2.4.5
 _ZN14CalamaresUtils12RetranslatorC1EP7QObject@Base 2.4.5
 _ZN14CalamaresUtils12RetranslatorC2EP7QObject@Base 2.4.5
 _ZN14CalamaresUtils12RetranslatorD0Ev@Base 2.4.5
 _ZN14CalamaresUtils12RetranslatorD1Ev@Base 2.4.5
 _ZN14CalamaresUtils12RetranslatorD2Ev@Base 2.4.5
 _ZN14CalamaresUtils12systemLibDirEv@Base 2.4.5
 _ZN14CalamaresUtils13qmlModulesDirEv@Base 2.4.5
 _ZN14CalamaresUtils13setAppDataDirERK4QDir@Base 2.4.5
 _ZN14CalamaresUtils16removeDiacriticsERK7QString@Base 2.4.5
 _ZN14CalamaresUtils16setQmlModulesDirERK4QDir@Base 2.4.5
 _ZN14CalamaresUtils17installTranslatorERK7QLocaleRK7QStringP7QObject@Base 2.4.5
 _ZN14CalamaresUtils22isAppDataDirOverriddenEv@Base 2.4.5
 _ZN14CalamaresUtils5crashEv@Base 2.4.5
 _ZN14CalamaresUtils6System10s_instanceE@Base 2.4.5
 _ZN14CalamaresUtils6System11qt_metacallEN11QMetaObject4CallEiPPv@Base 2.4.5
 _ZN14CalamaresUtils6System11qt_metacastEPKc@Base 2.4.5
 _ZN14CalamaresUtils6System13targetEnvCallERK11QStringListRK7QStringS6_i@Base 2.4.5
 _ZN14CalamaresUtils6System13targetEnvCallERK7QStringS3_S3_i@Base 2.4.5
 _ZN14CalamaresUtils6System15getTotalMemoryBEv@Base 2.4.5
 _ZN14CalamaresUtils6System15targetEnvOutputERK11QStringListR7QStringRKS4_S7_i@Base 2.4.5
 _ZN14CalamaresUtils6System15targetEnvOutputERK7QStringRS1_S3_S3_i@Base 2.4.5
 _ZN14CalamaresUtils6System16staticMetaObjectE@Base 2.4.5
 _ZN14CalamaresUtils6System18getPhysicalMemoryBEv@Base 2.4.5
 _ZN14CalamaresUtils6System5mountERK7QStringS3_S3_S3_@Base 2.4.5
 _ZN14CalamaresUtils6System8instanceEv@Base 2.4.5
 _ZN14CalamaresUtils6SystemC1EbP7QObject@Base 2.4.5
 _ZN14CalamaresUtils6SystemC2EbP7QObject@Base 2.4.5
 _ZN14CalamaresUtils6SystemD0Ev@Base 2.4.5
 _ZN14CalamaresUtils6SystemD1Ev@Base 2.4.5
 _ZN14CalamaresUtils6SystemD2Ev@Base 2.4.5
 _ZN14CalamaresUtils7obscureERK7QString@Base 2.4.5
 _ZN14CalamaresUtils9appLogDirEv@Base 2.4.5
 (optional=templinst)_ZN14QSharedPointerIN9Calamares3JobEE5derefEPN15QtSharedPointer20ExternalRefCountDataE@Base 2.4.5
 _ZN15CalamaresPython15target_env_callERKN5boost6python4listERKNSt7__cxx1112basic_stringIcSt11char_traitsIcESaIcEEEi@Base 2.4.5
 _ZN15CalamaresPython15target_env_callERKNSt7__cxx1112basic_stringIcSt11char_traitsIcESaIcEEES7_i@Base 2.4.5
 _ZN15CalamaresPython17variantToPyObjectERK8QVariant@Base 2.4.5
 _ZN15CalamaresPython18PythonJobInterface11setprogressEd@Base 2.4.5
 _ZN15CalamaresPython18PythonJobInterfaceC1EPN9Calamares9PythonJobE@Base 2.4.5
 _ZN15CalamaresPython18PythonJobInterfaceC2EPN9Calamares9PythonJobE@Base 2.4.5
 _ZN15CalamaresPython18PythonJobInterfaceD1Ev@Base 2.4.5
 _ZN15CalamaresPython18PythonJobInterfaceD2Ev@Base 2.4.5
 _ZN15CalamaresPython18variantMapToPyDictERK4QMapI7QString8QVariantE@Base 2.4.5
 _ZN15CalamaresPython19variantFromPyObjectERKN5boost6python3api6objectE@Base 2.4.5
 _ZN15CalamaresPython19variantHashToPyDictERK5QHashI7QString8QVariantE@Base 2.4.5
 _ZN15CalamaresPython19variantListToPyListERK5QListI8QVariantE@Base 2.4.5
 _ZN15CalamaresPython20variantMapFromPyDictERKN5boost6python4dictE@Base 2.4.5
 _ZN15CalamaresPython21check_target_env_callERKN5boost6python4listERKNSt7__cxx1112basic_stringIcSt11char_traitsIcESaIcEEEi@Base 2.4.5
 _ZN15CalamaresPython21check_target_env_callERKNSt7__cxx1112basic_stringIcSt11char_traitsIcESaIcEEES7_i@Base 2.4.5
 _ZN15CalamaresPython21variantHashFromPyDictERKN5boost6python4dictE@Base 2.4.5
 _ZN15CalamaresPython21variantListFromPyListERKN5boost6python4listE@Base 2.4.5
 _ZN15CalamaresPython23check_target_env_outputERKN5boost6python4listERKNSt7__cxx1112basic_stringIcSt11char_traitsIcESaIcEEEi@Base 2.4.5
 _ZN15CalamaresPython23check_target_env_outputERKNSt7__cxx1112basic_stringIcSt11char_traitsIcESaIcEEES7_i@Base 2.4.5
 _ZN15CalamaresPython26GlobalStoragePythonWrapper6insertERKNSt7__cxx1112basic_stringIcSt11char_traitsIcESaIcEEERKN5boost6python3api6objectE@Base 2.4.5
 _ZN15CalamaresPython26GlobalStoragePythonWrapper6removeERKNSt7__cxx1112basic_stringIcSt11char_traitsIcESaIcEEE@Base 2.4.5
 _ZN15CalamaresPython26GlobalStoragePythonWrapperC1EPN9Calamares13GlobalStorageE@Base 2.4.5
 _ZN15CalamaresPython26GlobalStoragePythonWrapperC2EPN9Calamares13GlobalStorageE@Base 2.4.5
 _ZN15CalamaresPython5debugERKNSt7__cxx1112basic_stringIcSt11char_traitsIcESaIcEEE@Base 2.4.5
 _ZN15CalamaresPython5mountERKNSt7__cxx1112basic_stringIcSt11char_traitsIcESaIcEEES7_S7_S7_@Base 2.4.5
 _ZN15CalamaresPython6Helper10s_instanceE@Base 2.4.5
 _ZN15CalamaresPython6Helper11qt_metacallEN11QMetaObject4CallEiPPv@Base 2.4.5
 _ZN15CalamaresPython6Helper11qt_metacastEPKc@Base 2.4.5
 _ZN15CalamaresPython6Helper15handleLastErrorEv@Base 2.4.5
 _ZN15CalamaresPython6Helper16staticMetaObjectE@Base 2.4.5
 _ZN15CalamaresPython6Helper20createCleanNamespaceEv@Base 2.4.5
 _ZN15CalamaresPython6HelperC1EP7QObject@Base 2.4.5
 _ZN15CalamaresPython6HelperC2EP7QObject@Base 2.4.5
 _ZN15CalamaresPython6HelperD0Ev@Base 2.4.5
 _ZN15CalamaresPython6HelperD1Ev@Base 2.4.5
 _ZN15CalamaresPython6HelperD2Ev@Base 2.4.5
 _ZN15CalamaresPython7obscureERKNSt7__cxx1112basic_stringIcSt11char_traitsIcESaIcEEE@Base 2.4.5
 (optional=templinst)_ZN15mount_overloads20non_void_return_type3genIN5boost3mpl7vector5IiRKNSt7__cxx1112basic_stringIcSt11char_traitsIcESaIcEEESC_SC_SC_EEE6func_0ESC_SC_@Base 2.4.5
 (optional=templinst)_ZN15mount_overloads20non_void_return_type3genIN5boost3mpl7vector5IiRKNSt7__cxx1112basic_stringIcSt11char_traitsIcESaIcEEESC_SC_SC_EEE6func_1ESC_SC_SC_@Base 2.4.5
 (optional=templinst)_ZN15mount_overloads20non_void_return_type3genIN5boost3mpl7vector5IiRKNSt7__cxx1112basic_stringIcSt11char_traitsIcESaIcEEESC_SC_SC_EEE6func_2ESC_SC_SC_SC_@Base 2.4.5
 (optional=templinst)_ZN17QtMetaTypePrivate23QMetaTypeFunctionHelperIN24KDSingleApplicationGuard8InstanceELb1EE8DestructEPv@Base 2.4.5
 (optional=templinst)_ZN17QtMetaTypePrivate23QMetaTypeFunctionHelperIN24KDSingleApplicationGuard8InstanceELb1EE9ConstructEPvPKv@Base 2.4.5
 _ZN24KDSingleApplicationGuard11qt_metacallEN11QMetaObject4CallEiPPv@Base 2.4.5
 _ZN24KDSingleApplicationGuard11qt_metacastEPKc@Base 2.4.5
 _ZN24KDSingleApplicationGuard13exitRequestedEv@Base 2.4.5
 _ZN24KDSingleApplicationGuard13policyChangedENS_6PolicyE@Base 2.4.5
 _ZN24KDSingleApplicationGuard14SIGINT_handlerEi@Base 2.4.5
 _ZN24KDSingleApplicationGuard14instanceExitedERKNS_8InstanceE@Base 2.4.5
 _ZN24KDSingleApplicationGuard14raiseRequestedEv@Base 2.4.5
 _ZN24KDSingleApplicationGuard15instanceStartedERKNS_8InstanceE@Base 2.4.5
 _ZN24KDSingleApplicationGuard16staticMetaObjectE@Base 2.4.5
 _ZN24KDSingleApplicationGuard18killOtherInstancesEv@Base 2.4.5
 _ZN24KDSingleApplicationGuard21becamePrimaryInstanceEv@Base 2.4.5
 _ZN24KDSingleApplicationGuard22shutdownOtherInstancesEv@Base 2.4.5
 _ZN24KDSingleApplicationGuard23becameSecondaryInstanceEv@Base 2.4.5
 _ZN24KDSingleApplicationGuard5eventEP6QEvent@Base 2.4.5
 _ZN24KDSingleApplicationGuard7Private14sharedmem_freeEPc@Base 2.4.5
 _ZN24KDSingleApplicationGuard7Private15primaryInstanceE@Base 2.4.5
 _ZN24KDSingleApplicationGuard7Private16sharedmem_mallocEm@Base 2.4.5
 _ZN24KDSingleApplicationGuard7Private16shutdownInstanceEv@Base 2.4.5
 _ZN24KDSingleApplicationGuard7Private4pollEv@Base 2.4.5
 _ZN24KDSingleApplicationGuard7Private6createERK11QStringList@Base 2.4.5
 _ZN24KDSingleApplicationGuard7PrivateC1ENS_6PolicyEPS_@Base 2.4.5
 _ZN24KDSingleApplicationGuard7PrivateC2ENS_6PolicyEPS_@Base 2.4.5
 _ZN24KDSingleApplicationGuard7PrivateD1Ev@Base 2.4.5
 _ZN24KDSingleApplicationGuard7PrivateD2Ev@Base 2.4.5
 _ZN24KDSingleApplicationGuard8Instance4killEv@Base 2.4.5
 _ZN24KDSingleApplicationGuard8Instance5raiseEv@Base 2.4.5
 _ZN24KDSingleApplicationGuard8Instance8shutdownEv@Base 2.4.5
 _ZN24KDSingleApplicationGuard8InstanceC1ERK11QStringListbx@Base 2.4.5
 _ZN24KDSingleApplicationGuard8InstanceC1ERKS0_@Base 2.4.5
 _ZN24KDSingleApplicationGuard8InstanceC1Ev@Base 2.4.5
 _ZN24KDSingleApplicationGuard8InstanceC2ERK11QStringListbx@Base 2.4.5
 _ZN24KDSingleApplicationGuard8InstanceC2ERKS0_@Base 2.4.5
 _ZN24KDSingleApplicationGuard8InstanceC2Ev@Base 2.4.5
 _ZN24KDSingleApplicationGuard8InstanceD1Ev@Base 2.4.5
 _ZN24KDSingleApplicationGuard8InstanceD2Ev@Base 2.4.5
 _ZN24KDSingleApplicationGuard9setPolicyENS_6PolicyE@Base 2.4.5
 _ZN24KDSingleApplicationGuardC1ENS_6PolicyEP7QObject@Base 2.4.5
 _ZN24KDSingleApplicationGuardC1EP7QObject@Base 2.4.5
 _ZN24KDSingleApplicationGuardC1ERK11QStringListNS_6PolicyEP7QObject@Base 2.4.5
 _ZN24KDSingleApplicationGuardC1ERK11QStringListP7QObject@Base 2.4.5
 _ZN24KDSingleApplicationGuardC2ENS_6PolicyEP7QObject@Base 2.4.5
 _ZN24KDSingleApplicationGuardC2EP7QObject@Base 2.4.5
 _ZN24KDSingleApplicationGuardC2ERK11QStringListNS_6PolicyEP7QObject@Base 2.4.5
 _ZN24KDSingleApplicationGuardC2ERK11QStringListP7QObject@Base 2.4.5
 _ZN24KDSingleApplicationGuardD0Ev@Base 2.4.5
 _ZN24KDSingleApplicationGuardD1Ev@Base 2.4.5
 _ZN24KDSingleApplicationGuardD2Ev@Base 2.4.5
 (optional=templinst)_ZN29target_env_call_str_overloads20non_void_return_type3genIN5boost3mpl7vector4IiRKNSt7__cxx1112basic_stringIcSt11char_traitsIcESaIcEEESC_iEEE6func_0ESC_@Base 2.4.5
 (optional=templinst)_ZN29target_env_call_str_overloads20non_void_return_type3genIN5boost3mpl7vector4IiRKNSt7__cxx1112basic_stringIcSt11char_traitsIcESaIcEEESC_iEEE6func_1ESC_SC_@Base 2.4.5
 (optional=templinst)_ZN29target_env_call_str_overloads20non_void_return_type3genIN5boost3mpl7vector4IiRKNSt7__cxx1112basic_stringIcSt11char_traitsIcESaIcEEESC_iEEE6func_2ESC_SC_i@Base 2.4.5
 (optional=templinst)_ZN30target_env_call_list_overloads20non_void_return_type3genIN5boost3mpl7vector4IiRKNS2_6python4listERKNSt7__cxx1112basic_stringIcSt11char_traitsIcESaIcEEEiEEE6func_0ES8_@Base 2.4.5
 (optional=templinst)_ZN30target_env_call_list_overloads20non_void_return_type3genIN5boost3mpl7vector4IiRKNS2_6python4listERKNSt7__cxx1112basic_stringIcSt11char_traitsIcESaIcEEEiEEE6func_1ES8_SG_@Base 2.4.5
 (optional=templinst)_ZN30target_env_call_list_overloads20non_void_return_type3genIN5boost3mpl7vector4IiRKNS2_6python4listERKNSt7__cxx1112basic_stringIcSt11char_traitsIcESaIcEEEiEEE6func_2ES8_SG_i@Base 2.4.5
 (optional=templinst)_ZN35check_target_env_call_str_overloads20non_void_return_type3genIN5boost3mpl7vector4IiRKNSt7__cxx1112basic_stringIcSt11char_traitsIcESaIcEEESC_iEEE6func_0ESC_@Base 2.4.5
 (optional=templinst)_ZN35check_target_env_call_str_overloads20non_void_return_type3genIN5boost3mpl7vector4IiRKNSt7__cxx1112basic_stringIcSt11char_traitsIcESaIcEEESC_iEEE6func_1ESC_SC_@Base 2.4.5
 (optional=templinst)_ZN35check_target_env_call_str_overloads20non_void_return_type3genIN5boost3mpl7vector4IiRKNSt7__cxx1112basic_stringIcSt11char_traitsIcESaIcEEESC_iEEE6func_2ESC_SC_i@Base 2.4.5
 (optional=templinst)_ZN36check_target_env_call_list_overloads20non_void_return_type3genIN5boost3mpl7vector4IiRKNS2_6python4listERKNSt7__cxx1112basic_stringIcSt11char_traitsIcESaIcEEEiEEE6func_0ES8_@Base 2.4.5
 (optional=templinst)_ZN36check_target_env_call_list_overloads20non_void_return_type3genIN5boost3mpl7vector4IiRKNS2_6python4listERKNSt7__cxx1112basic_stringIcSt11char_traitsIcESaIcEEEiEEE6func_1ES8_SG_@Base 2.4.5
 (optional=templinst)_ZN36check_target_env_call_list_overloads20non_void_return_type3genIN5boost3mpl7vector4IiRKNS2_6python4listERKNSt7__cxx1112basic_stringIcSt11char_traitsIcESaIcEEEiEEE6func_2ES8_SG_i@Base 2.4.5
 (optional=templinst)_ZN37check_target_env_output_str_overloads20non_void_return_type3genIN5boost3mpl7vector4INSt7__cxx1112basic_stringIcSt11char_traitsIcESaIcEEERKSA_SC_iEEE6func_0ESC_@Base 2.4.5
 (optional=templinst)_ZN37check_target_env_output_str_overloads20non_void_return_type3genIN5boost3mpl7vector4INSt7__cxx1112basic_stringIcSt11char_traitsIcESaIcEEERKSA_SC_iEEE6func_1ESC_SC_@Base 2.4.5
 (optional=templinst)_ZN37check_target_env_output_str_overloads20non_void_return_type3genIN5boost3mpl7vector4INSt7__cxx1112basic_stringIcSt11char_traitsIcESaIcEEERKSA_SC_iEEE6func_2ESC_SC_i@Base 2.4.5
 (optional=templinst)_ZN38check_target_env_output_list_overloads20non_void_return_type3genIN5boost3mpl7vector4INSt7__cxx1112basic_stringIcSt11char_traitsIcESaIcEEERKNS2_6python4listERKSA_iEEE6func_0ESE_@Base 2.4.5
 (optional=templinst)_ZN38check_target_env_output_list_overloads20non_void_return_type3genIN5boost3mpl7vector4INSt7__cxx1112basic_stringIcSt11char_traitsIcESaIcEEERKNS2_6python4listERKSA_iEEE6func_1ESE_SG_@Base 2.4.5
 (optional=templinst)_ZN38check_target_env_output_list_overloads20non_void_return_type3genIN5boost3mpl7vector4INSt7__cxx1112basic_stringIcSt11char_traitsIcESaIcEEERKNS2_6python4listERKSA_iEEE6func_2ESE_SG_i@Base 2.4.5
 (optional=templinst)_ZN4QMapI7QString8QVariantE13detach_helperEv@Base 2.4.5
 (optional=templinst)_ZN4QMapI7QString8QVariantED1Ev@Base 2.4.5
 (optional=templinst)_ZN4QMapI7QString8QVariantED2Ev@Base 2.4.5
 (optional=templinst)_ZN5QHashI7QString5QPairIPK11QMetaObjectPFP7QObjectP7QWidgetS6_EEE11deleteNode2EPN9QHashData4NodeE@Base 2.4.5
 (optional=templinst)_ZN5QHashI7QString5QPairIPK11QMetaObjectPFP7QObjectP7QWidgetS6_EEE13detach_helperEv@Base 2.4.5
 (optional=templinst)_ZN5QHashI7QString5QPairIPK11QMetaObjectPFP7QObjectP7QWidgetS6_EEE13duplicateNodeEPN9QHashData4NodeEPv@Base 2.4.5
 (optional=templinst)_ZN5QHashI7QString8QVariantE11deleteNode2EPN9QHashData4NodeE@Base 2.4.5
 (optional=templinst)_ZN5QHashI7QString8QVariantE13duplicateNodeEPN9QHashData4NodeEPv@Base 2.4.5
 (optional=templinst)_ZN5QHashI7QString8QVariantED1Ev@Base 2.4.5
 (optional=templinst)_ZN5QHashI7QString8QVariantED2Ev@Base 2.4.5
 (optional=templinst)_ZN5QListI14QSharedPointerIN9Calamares3JobEEE13detach_helperEi@Base 2.4.5
 (optional=templinst)_ZN5QListI14QSharedPointerIN9Calamares3JobEEE18detach_helper_growEii@Base 2.4.5
 (optional=templinst)_ZN5QListI14QSharedPointerIN9Calamares3JobEEE6appendERKS3_@Base 2.4.5
 (optional=templinst)_ZN5QListI14QSharedPointerIN9Calamares3JobEEEC1ERKS4_@Base 2.4.5
 (optional=templinst)_ZN5QListI14QSharedPointerIN9Calamares3JobEEEC2ERKS4_@Base 2.4.5
 (optional=templinst)_ZN5QListI14QSharedPointerIN9Calamares3JobEEED1Ev@Base 2.4.5
 (optional=templinst)_ZN5QListI14QSharedPointerIN9Calamares3JobEEED2Ev@Base 2.4.5
 (optional=templinst)_ZN5QListI14QSharedPointerIN9Calamares3JobEEEpLERKS4_@Base 2.4.5
 (optional=templinst)_ZN5QListI5QPairIPK11QMetaObjectPFP7QObjectP7QWidgetS5_EEE18detach_helper_growEii@Base 2.4.5
 (optional=templinst)_ZN5QListI5QPairIPK11QMetaObjectPFP7QObjectP7QWidgetS5_EEE6appendERKSA_@Base 2.4.5
 (optional=templinst)_ZN5QListI5QPairIPK11QMetaObjectPFP7QObjectP7QWidgetS5_EEED1Ev@Base 2.4.5
 (optional=templinst)_ZN5QListI5QPairIPK11QMetaObjectPFP7QObjectP7QWidgetS5_EEED2Ev@Base 2.4.5
 (optional=templinst)_ZN5QListI7QStringE18detach_helper_growEii@Base 2.4.5
 (optional=templinst)_ZN5QListI7QStringE6appendERKS0_@Base 2.4.5
 (optional=templinst)_ZN5QListI7QStringEC1ERKS1_@Base 2.4.5
 (optional=templinst)_ZN5QListI7QStringEC2ERKS1_@Base 2.4.5
 (optional=templinst)_ZN5QListI7QStringED1Ev@Base 2.4.5
 (optional=templinst)_ZN5QListI7QStringED2Ev@Base 2.4.5
 (optional=templinst)_ZN5QListI7QStringEpLERKS1_@Base 2.4.5
 (optional=templinst)_ZN5QListI8QVariantE18detach_helper_growEii@Base 2.4.5
 (optional=templinst)_ZN5QListI8QVariantE6appendERKS0_@Base 2.4.5
 (optional=templinst)_ZN5QListI8QVariantED1Ev@Base 2.4.5
 (optional=templinst)_ZN5QListI8QVariantED2Ev@Base 2.4.5
 (optional=templinst)_ZN5QListISt8functionIFvvEEE18detach_helper_growEii@Base 2.4.5
 (optional=templinst)_ZN5QListISt8functionIFvvEEE6appendERKS2_@Base 2.4.5
 (optional=templinst)_ZN5QListISt8functionIFvvEEEC1ERKS3_@Base 2.4.5
 (optional=templinst)_ZN5QListISt8functionIFvvEEEC2ERKS3_@Base 2.4.5
 (optional=templinst)_ZN5QListISt8functionIFvvEEED1Ev@Base 2.4.5
 (optional=templinst)_ZN5QListISt8functionIFvvEEED2Ev@Base 2.4.5
 _ZN5boost6detail15sp_counted_base7destroyEv@Base 2.4.5
 (optional=templinst)_ZN5boost6detail18sp_counted_impl_pdIPvNS_6python9converter18shared_ptr_deleterEE11get_deleterERKSt9type_info@Base 2.4.5
 (optional=templinst)_ZN5boost6detail18sp_counted_impl_pdIPvNS_6python9converter18shared_ptr_deleterEE19get_untyped_deleterEv@Base 2.4.5
 (optional=templinst)_ZN5boost6detail18sp_counted_impl_pdIPvNS_6python9converter18shared_ptr_deleterEE7disposeEv@Base 2.4.5
 (optional=templinst)_ZN5boost6detail18sp_counted_impl_pdIPvNS_6python9converter18shared_ptr_deleterEED0Ev@Base 2.4.5
 (optional=templinst)_ZN5boost6detail18sp_counted_impl_pdIPvNS_6python9converter18shared_ptr_deleterEED1Ev@Base 2.4.5
 (optional=templinst)_ZN5boost6detail18sp_counted_impl_pdIPvNS_6python9converter18shared_ptr_deleterEED2Ev@Base 2.4.5
 (optional=templinst)_ZN5boost6detail8function17reference_managerIPFvvEE6manageERKNS1_15function_bufferERS6_NS1_30functor_manager_operation_typeE@Base 2.4.5
 (optional=templinst)_ZN5boost6detail8function26void_function_ref_invoker0IPFvvEvE6invokeERNS1_15function_bufferE@Base 2.4.5
 (optional=templinst)_ZN5boost6python16handle_exceptionIPFvvEEEbT_@Base 2.4.5
 (optional=templinst)_ZN5boost6python19to_python_converterIN15CalamaresPython18PythonJobInterfaceENS0_7objects18class_cref_wrapperIS3_NS4_13make_instanceIS3_NS4_12value_holderIS3_EEEEEELb1EE15get_pytype_implEv@Base 2.4.5
 (optional=templinst)_ZN5boost6python19to_python_converterIN15CalamaresPython26GlobalStoragePythonWrapperENS0_7objects18class_cref_wrapperIS3_NS4_13make_instanceIS3_NS4_12value_holderIS3_EEEEEELb1EE15get_pytype_implEv@Base 2.4.5
 (optional=templinst)_ZN5boost6python3api5proxyINS1_13item_policiesEED1Ev@Base 2.4.5
 (optional=templinst)_ZN5boost6python3api5proxyINS1_13item_policiesEED2Ev@Base 2.4.5
 (optional=templinst)_ZN5boost6python3api5proxyINS1_19const_item_policiesEED1Ev@Base 2.4.5
 (optional=templinst)_ZN5boost6python3api5proxyINS1_19const_item_policiesEED2Ev@Base 2.4.5
 _ZN5boost6python3api9slice_nilD1Ev@Base 2.4.5
 _ZN5boost6python3api9slice_nilD2Ev@Base 2.4.5
 _ZN5boost6python5scopeD1Ev@Base 2.4.5
 _ZN5boost6python5scopeD2Ev@Base 2.4.5
 (optional=templinst)_ZN5boost6python6class_IN15CalamaresPython18PythonJobInterfaceENS0_6detail13not_specifiedES5_S5_E12add_propertyIMS3_NSt7__cxx1112basic_stringIcSt11char_traitsIcESaIcEEEEERS6_PKcT_SH_@Base 2.4.5
 (optional=templinst)_ZN5boost6python6detail12caller_arityILj4EE4implIPFiRKNSt7__cxx1112basic_stringIcSt11char_traitsIcESaIcEEESC_SC_SC_ENS0_21default_call_policiesENS_3mpl7vector5IiSC_SC_SC_SC_EEEclEP7_objectSL_@Base 2.4.5
 (optional=templinst)_ZN5boost6python6detail13keywords_baseILm1EED1Ev@Base 2.4.5
 (optional=templinst)_ZN5boost6python6detail13keywords_baseILm1EED2Ev@Base 2.4.5
 (optional=templinst)_ZN5boost6python6detail13keywords_baseILm3EED1Ev@Base 2.4.5
 (optional=templinst)_ZN5boost6python6detail13keywords_baseILm3EED2Ev@Base 2.4.5
 (optional=templinst)_ZN5boost6python6detail13keywords_baseILm4EED1Ev@Base 2.4.5
 (optional=templinst)_ZN5boost6python6detail13keywords_baseILm4EED2Ev@Base 2.4.5
 _ZN5boost6python6detail15def_from_helperIPFvRKNSt7__cxx1112basic_stringIcSt11char_traitsIcESaIcEEEENS1_10def_helperINS1_8keywordsILm1EEEA55_cNS1_13not_specifiedESH_EEEEvPKcRKT_RKT0_@Base 2.4.5
 (optional=templinst)_ZN5boost6python6detail21converter_target_typeINS0_15to_python_valueIRKNS0_3api6objectEEEE10get_pytypeEv@Base 2.4.5
 (optional=templinst)_ZN5boost6python6detail21converter_target_typeINS0_15to_python_valueIRKNS0_4listEEEE10get_pytypeEv@Base 2.4.5
 (optional=templinst)_ZN5boost6python6detail21converter_target_typeINS0_15to_python_valueIRKNSt7__cxx1112basic_stringIcSt11char_traitsIcESaIcEEEEEE10get_pytypeEv@Base 2.4.5
 (optional=templinst)_ZN5boost6python6detail21converter_target_typeINS0_15to_python_valueIRKbEEE10get_pytypeEv@Base 2.4.5
 (optional=templinst)_ZN5boost6python6detail21converter_target_typeINS0_15to_python_valueIRKiEEE10get_pytypeEv@Base 2.4.5
 (optional=templinst)_ZN5boost6python6detail21converter_target_typeINS0_15to_python_valueIRNS0_4dictEEEE10get_pytypeEv@Base 2.4.5
 (optional=templinst)_ZN5boost6python6detail21converter_target_typeINS0_15to_python_valueIRNSt7__cxx1112basic_stringIcSt11char_traitsIcESaIcEEEEEE10get_pytypeEv@Base 2.4.5
 (optional=templinst)_ZN5boost6python6detail21converter_target_typeIiE10get_pytypeEv@Base 2.4.5
 _ZN5boost6python6detail7rethrowEv@Base 2.4.5
 (optional=templinst)_ZN5boost6python7objects11make_holderILi1EE5applyINS1_12value_holderIN15CalamaresPython18PythonJobInterfaceEEENS_3mpl7vector1IPN9Calamares9PythonJobEEEE7executeEP7_objectSD_@Base 2.4.5
 (optional=templinst)_ZN5boost6python7objects11make_holderILi1EE5applyINS1_12value_holderIN15CalamaresPython26GlobalStoragePythonWrapperEEENS_3mpl7vector1IPN9Calamares13GlobalStorageEEEE7executeEP7_objectSD_@Base 2.4.5
 (optional=templinst)_ZN5boost6python7objects12value_holderIN15CalamaresPython18PythonJobInterfaceEE5holdsENS0_9type_infoEb@Base 2.4.5
 (optional=templinst)_ZN5boost6python7objects12value_holderIN15CalamaresPython18PythonJobInterfaceEED0Ev@Base 2.4.5
 (optional=templinst)_ZN5boost6python7objects12value_holderIN15CalamaresPython18PythonJobInterfaceEED1Ev@Base 2.4.5
 (optional=templinst)_ZN5boost6python7objects12value_holderIN15CalamaresPython18PythonJobInterfaceEED2Ev@Base 2.4.5
 (optional=templinst)_ZN5boost6python7objects12value_holderIN15CalamaresPython26GlobalStoragePythonWrapperEE5holdsENS0_9type_infoEb@Base 2.4.5
 (optional=templinst)_ZN5boost6python7objects12value_holderIN15CalamaresPython26GlobalStoragePythonWrapperEED0Ev@Base 2.4.5
 (optional=templinst)_ZN5boost6python7objects12value_holderIN15CalamaresPython26GlobalStoragePythonWrapperEED1Ev@Base 2.4.5
 (optional=templinst)_ZN5boost6python7objects12value_holderIN15CalamaresPython26GlobalStoragePythonWrapperEED2Ev@Base 2.4.5
 (optional=templinst)_ZN5boost6python7objects23caller_py_function_implINS0_6detail6callerIMN15CalamaresPython18PythonJobInterfaceEFvdENS0_21default_call_policiesENS_3mpl7vector3IvRS6_dEEEEED0Ev@Base 2.4.5
 (optional=templinst)_ZN5boost6python7objects23caller_py_function_implINS0_6detail6callerIMN15CalamaresPython18PythonJobInterfaceEFvdENS0_21default_call_policiesENS_3mpl7vector3IvRS6_dEEEEED1Ev@Base 2.4.5
 (optional=templinst)_ZN5boost6python7objects23caller_py_function_implINS0_6detail6callerIMN15CalamaresPython18PythonJobInterfaceEFvdENS0_21default_call_policiesENS_3mpl7vector3IvRS6_dEEEEED2Ev@Base 2.4.5
 (optional=templinst)_ZN5boost6python7objects23caller_py_function_implINS0_6detail6callerIMN15CalamaresPython18PythonJobInterfaceEFvdENS0_21default_call_policiesENS_3mpl7vector3IvRS6_dEEEEEclEP7_objectSH_@Base 2.4.5
 (optional=templinst)_ZN5boost6python7objects23caller_py_function_implINS0_6detail6callerIMN15CalamaresPython26GlobalStoragePythonWrapperEFiRKNSt7__cxx1112basic_stringIcSt11char_traitsIcESaIcEEEENS0_21default_call_policiesENS_3mpl7vector3IiRS6_SE_EEEEED0Ev@Base 2.4.5
 (optional=templinst)_ZN5boost6python7objects23caller_py_function_implINS0_6detail6callerIMN15CalamaresPython26GlobalStoragePythonWrapperEFiRKNSt7__cxx1112basic_stringIcSt11char_traitsIcESaIcEEEENS0_21default_call_policiesENS_3mpl7vector3IiRS6_SE_EEEEED1Ev@Base 2.4.5
 (optional=templinst)_ZN5boost6python7objects23caller_py_function_implINS0_6detail6callerIMN15CalamaresPython26GlobalStoragePythonWrapperEFiRKNSt7__cxx1112basic_stringIcSt11char_traitsIcESaIcEEEENS0_21default_call_policiesENS_3mpl7vector3IiRS6_SE_EEEEED2Ev@Base 2.4.5
 (optional=templinst)_ZN5boost6python7objects23caller_py_function_implINS0_6detail6callerIMN15CalamaresPython26GlobalStoragePythonWrapperEFiRKNSt7__cxx1112basic_stringIcSt11char_traitsIcESaIcEEEENS0_21default_call_policiesENS_3mpl7vector3IiRS6_SE_EEEEEclEP7_objectSP_@Base 2.4.5
 (optional=templinst)_ZN5boost6python7objects23caller_py_function_implINS0_6detail6callerIMN15CalamaresPython26GlobalStoragePythonWrapperEFvRKNSt7__cxx1112basic_stringIcSt11char_traitsIcESaIcEEERKNS0_3api6objectEENS0_21default_call_policiesENS_3mpl7vector4IvRS6_SE_SI_EEEEED0Ev@Base 2.4.5
 (optional=templinst)_ZN5boost6python7objects23caller_py_function_implINS0_6detail6callerIMN15CalamaresPython26GlobalStoragePythonWrapperEFvRKNSt7__cxx1112basic_stringIcSt11char_traitsIcESaIcEEERKNS0_3api6objectEENS0_21default_call_policiesENS_3mpl7vector4IvRS6_SE_SI_EEEEED1Ev@Base 2.4.5
 (optional=templinst)_ZN5boost6python7objects23caller_py_function_implINS0_6detail6callerIMN15CalamaresPython26GlobalStoragePythonWrapperEFvRKNSt7__cxx1112basic_stringIcSt11char_traitsIcESaIcEEERKNS0_3api6objectEENS0_21default_call_policiesENS_3mpl7vector4IvRS6_SE_SI_EEEEED2Ev@Base 2.4.5
 (optional=templinst)_ZN5boost6python7objects23caller_py_function_implINS0_6detail6callerIMN15CalamaresPython26GlobalStoragePythonWrapperEFvRKNSt7__cxx1112basic_stringIcSt11char_traitsIcESaIcEEERKNS0_3api6objectEENS0_21default_call_policiesENS_3mpl7vector4IvRS6_SE_SI_EEEEEclEP7_objectST_@Base 2.4.5
 (optional=templinst)_ZN5boost6python7objects23caller_py_function_implINS0_6detail6callerIMN15CalamaresPython26GlobalStoragePythonWrapperEKFNS0_3api6objectERKNSt7__cxx1112basic_stringIcSt11char_traitsIcESaIcEEEENS0_21default_call_policiesENS_3mpl7vector3IS8_RS6_SG_EEEEED0Ev@Base 2.4.5
 (optional=templinst)_ZN5boost6python7objects23caller_py_function_implINS0_6detail6callerIMN15CalamaresPython26GlobalStoragePythonWrapperEKFNS0_3api6objectERKNSt7__cxx1112basic_stringIcSt11char_traitsIcESaIcEEEENS0_21default_call_policiesENS_3mpl7vector3IS8_RS6_SG_EEEEED1Ev@Base 2.4.5
 (optional=templinst)_ZN5boost6python7objects23caller_py_function_implINS0_6detail6callerIMN15CalamaresPython26GlobalStoragePythonWrapperEKFNS0_3api6objectERKNSt7__cxx1112basic_stringIcSt11char_traitsIcESaIcEEEENS0_21default_call_policiesENS_3mpl7vector3IS8_RS6_SG_EEEEED2Ev@Base 2.4.5
 (optional=templinst)_ZN5boost6python7objects23caller_py_function_implINS0_6detail6callerIMN15CalamaresPython26GlobalStoragePythonWrapperEKFNS0_3api6objectERKNSt7__cxx1112basic_stringIcSt11char_traitsIcESaIcEEEENS0_21default_call_policiesENS_3mpl7vector3IS8_RS6_SG_EEEEEclEP7_objectSR_@Base 2.4.5
 (optional=templinst)_ZN5boost6python7objects23caller_py_function_implINS0_6detail6callerIMN15CalamaresPython26GlobalStoragePythonWrapperEKFNS0_4listEvENS0_21default_call_policiesENS_3mpl7vector2IS7_RS6_EEEEED0Ev@Base 2.4.5
 (optional=templinst)_ZN5boost6python7objects23caller_py_function_implINS0_6detail6callerIMN15CalamaresPython26GlobalStoragePythonWrapperEKFNS0_4listEvENS0_21default_call_policiesENS_3mpl7vector2IS7_RS6_EEEEED1Ev@Base 2.4.5
 (optional=templinst)_ZN5boost6python7objects23caller_py_function_implINS0_6detail6callerIMN15CalamaresPython26GlobalStoragePythonWrapperEKFNS0_4listEvENS0_21default_call_policiesENS_3mpl7vector2IS7_RS6_EEEEED2Ev@Base 2.4.5
 (optional=templinst)_ZN5boost6python7objects23caller_py_function_implINS0_6detail6callerIMN15CalamaresPython26GlobalStoragePythonWrapperEKFNS0_4listEvENS0_21default_call_policiesENS_3mpl7vector2IS7_RS6_EEEEEclEP7_objectSI_@Base 2.4.5
 (optional=templinst)_ZN5boost6python7objects23caller_py_function_implINS0_6detail6callerIMN15CalamaresPython26GlobalStoragePythonWrapperEKFbRKNSt7__cxx1112basic_stringIcSt11char_traitsIcESaIcEEEENS0_21default_call_policiesENS_3mpl7vector3IbRS6_SE_EEEEED0Ev@Base 2.4.5
 (optional=templinst)_ZN5boost6python7objects23caller_py_function_implINS0_6detail6callerIMN15CalamaresPython26GlobalStoragePythonWrapperEKFbRKNSt7__cxx1112basic_stringIcSt11char_traitsIcESaIcEEEENS0_21default_call_policiesENS_3mpl7vector3IbRS6_SE_EEEEED1Ev@Base 2.4.5
 (optional=templinst)_ZN5boost6python7objects23caller_py_function_implINS0_6detail6callerIMN15CalamaresPython26GlobalStoragePythonWrapperEKFbRKNSt7__cxx1112basic_stringIcSt11char_traitsIcESaIcEEEENS0_21default_call_policiesENS_3mpl7vector3IbRS6_SE_EEEEED2Ev@Base 2.4.5
 (optional=templinst)_ZN5boost6python7objects23caller_py_function_implINS0_6detail6callerIMN15CalamaresPython26GlobalStoragePythonWrapperEKFbRKNSt7__cxx1112basic_stringIcSt11char_traitsIcESaIcEEEENS0_21default_call_policiesENS_3mpl7vector3IbRS6_SE_EEEEEclEP7_objectSP_@Base 2.4.5
 (optional=templinst)_ZN5boost6python7objects23caller_py_function_implINS0_6detail6callerIMN15CalamaresPython26GlobalStoragePythonWrapperEKFivENS0_21default_call_policiesENS_3mpl7vector2IiRS6_EEEEED0Ev@Base 2.4.5
 (optional=templinst)_ZN5boost6python7objects23caller_py_function_implINS0_6detail6callerIMN15CalamaresPython26GlobalStoragePythonWrapperEKFivENS0_21default_call_policiesENS_3mpl7vector2IiRS6_EEEEED1Ev@Base 2.4.5
 (optional=templinst)_ZN5boost6python7objects23caller_py_function_implINS0_6detail6callerIMN15CalamaresPython26GlobalStoragePythonWrapperEKFivENS0_21default_call_policiesENS_3mpl7vector2IiRS6_EEEEED2Ev@Base 2.4.5
 (optional=templinst)_ZN5boost6python7objects23caller_py_function_implINS0_6detail6callerIMN15CalamaresPython26GlobalStoragePythonWrapperEKFivENS0_21default_call_policiesENS_3mpl7vector2IiRS6_EEEEEclEP7_objectSH_@Base 2.4.5
 (optional=templinst)_ZN5boost6python7objects23caller_py_function_implINS0_6detail6callerINS3_6memberINS0_4dictEN15CalamaresPython18PythonJobInterfaceEEENS0_19return_value_policyINS0_15return_by_valueENS0_21default_call_policiesEEENS_3mpl7vector2IRS6_RS8_EEEEED0Ev@Base 2.4.5
 (optional=templinst)_ZN5boost6python7objects23caller_py_function_implINS0_6detail6callerINS3_6memberINS0_4dictEN15CalamaresPython18PythonJobInterfaceEEENS0_19return_value_policyINS0_15return_by_valueENS0_21default_call_policiesEEENS_3mpl7vector2IRS6_RS8_EEEEED1Ev@Base 2.4.5
 (optional=templinst)_ZN5boost6python7objects23caller_py_function_implINS0_6detail6callerINS3_6memberINS0_4dictEN15CalamaresPython18PythonJobInterfaceEEENS0_19return_value_policyINS0_15return_by_valueENS0_21default_call_policiesEEENS_3mpl7vector2IRS6_RS8_EEEEED2Ev@Base 2.4.5
 (optional=templinst)_ZN5boost6python7objects23caller_py_function_implINS0_6detail6callerINS3_6memberINS0_4dictEN15CalamaresPython18PythonJobInterfaceEEENS0_19return_value_policyINS0_15return_by_valueENS0_21default_call_policiesEEENS_3mpl7vector2IRS6_RS8_EEEEEclEP7_objectSM_@Base 2.4.5
 (optional=templinst)_ZN5boost6python7objects23caller_py_function_implINS0_6detail6callerINS3_6memberINSt7__cxx1112basic_stringIcSt11char_traitsIcESaIcEEEN15CalamaresPython18PythonJobInterfaceEEENS0_19return_value_policyINS0_15return_by_valueENS0_21default_call_policiesEEENS_3mpl7vector2IRSB_RSD_EEEEED0Ev@Base 2.4.5
 (optional=templinst)_ZN5boost6python7objects23caller_py_function_implINS0_6detail6callerINS3_6memberINSt7__cxx1112basic_stringIcSt11char_traitsIcESaIcEEEN15CalamaresPython18PythonJobInterfaceEEENS0_19return_value_policyINS0_15return_by_valueENS0_21default_call_policiesEEENS_3mpl7vector2IRSB_RSD_EEEEED1Ev@Base 2.4.5
 (optional=templinst)_ZN5boost6python7objects23caller_py_function_implINS0_6detail6callerINS3_6memberINSt7__cxx1112basic_stringIcSt11char_traitsIcESaIcEEEN15CalamaresPython18PythonJobInterfaceEEENS0_19return_value_policyINS0_15return_by_valueENS0_21default_call_policiesEEENS_3mpl7vector2IRSB_RSD_EEEEED2Ev@Base 2.4.5
 (optional=templinst)_ZN5boost6python7objects23caller_py_function_implINS0_6detail6callerINS3_6memberINSt7__cxx1112basic_stringIcSt11char_traitsIcESaIcEEEN15CalamaresPython18PythonJobInterfaceEEENS0_19return_value_policyINS0_15return_by_valueENS0_21default_call_policiesEEENS_3mpl7vector2IRSB_RSD_EEEEEclEP7_objectSR_@Base 2.4.5
 (optional=templinst)_ZN5boost6python7objects23caller_py_function_implINS0_6detail6callerIPFNSt7__cxx1112basic_stringIcSt11char_traitsIcESaIcEEERKNS0_4listEENS0_21default_call_policiesENS_3mpl7vector2ISA_SD_EEEEED0Ev@Base 2.4.5
 (optional=templinst)_ZN5boost6python7objects23caller_py_function_implINS0_6detail6callerIPFNSt7__cxx1112basic_stringIcSt11char_traitsIcESaIcEEERKNS0_4listEENS0_21default_call_policiesENS_3mpl7vector2ISA_SD_EEEEED1Ev@Base 2.4.5
 (optional=templinst)_ZN5boost6python7objects23caller_py_function_implINS0_6detail6callerIPFNSt7__cxx1112basic_stringIcSt11char_traitsIcESaIcEEERKNS0_4listEENS0_21default_call_policiesENS_3mpl7vector2ISA_SD_EEEEED2Ev@Base 2.4.5
 (optional=templinst)_ZN5boost6python7objects23caller_py_function_implINS0_6detail6callerIPFNSt7__cxx1112basic_stringIcSt11char_traitsIcESaIcEEERKNS0_4listEENS0_21default_call_policiesENS_3mpl7vector2ISA_SD_EEEEEclEP7_objectSN_@Base 2.4.5
 (optional=templinst)_ZN5boost6python7objects23caller_py_function_implINS0_6detail6callerIPFNSt7__cxx1112basic_stringIcSt11char_traitsIcESaIcEEERKNS0_4listERKSA_ENS0_21default_call_policiesENS_3mpl7vector3ISA_SD_SF_EEEEED0Ev@Base 2.4.5
 (optional=templinst)_ZN5boost6python7objects23caller_py_function_implINS0_6detail6callerIPFNSt7__cxx1112basic_stringIcSt11char_traitsIcESaIcEEERKNS0_4listERKSA_ENS0_21default_call_policiesENS_3mpl7vector3ISA_SD_SF_EEEEED1Ev@Base 2.4.5
 (optional=templinst)_ZN5boost6python7objects23caller_py_function_implINS0_6detail6callerIPFNSt7__cxx1112basic_stringIcSt11char_traitsIcESaIcEEERKNS0_4listERKSA_ENS0_21default_call_policiesENS_3mpl7vector3ISA_SD_SF_EEEEED2Ev@Base 2.4.5
 (optional=templinst)_ZN5boost6python7objects23caller_py_function_implINS0_6detail6callerIPFNSt7__cxx1112basic_stringIcSt11char_traitsIcESaIcEEERKNS0_4listERKSA_ENS0_21default_call_policiesENS_3mpl7vector3ISA_SD_SF_EEEEEclEP7_objectSP_@Base 2.4.5
 (optional=templinst)_ZN5boost6python7objects23caller_py_function_implINS0_6detail6callerIPFNSt7__cxx1112basic_stringIcSt11char_traitsIcESaIcEEERKNS0_4listERKSA_iENS0_21default_call_policiesENS_3mpl7vector4ISA_SD_SF_iEEEEED0Ev@Base 2.4.5
 (optional=templinst)_ZN5boost6python7objects23caller_py_function_implINS0_6detail6callerIPFNSt7__cxx1112basic_stringIcSt11char_traitsIcESaIcEEERKNS0_4listERKSA_iENS0_21default_call_policiesENS_3mpl7vector4ISA_SD_SF_iEEEEED1Ev@Base 2.4.5
 (optional=templinst)_ZN5boost6python7objects23caller_py_function_implINS0_6detail6callerIPFNSt7__cxx1112basic_stringIcSt11char_traitsIcESaIcEEERKNS0_4listERKSA_iENS0_21default_call_policiesENS_3mpl7vector4ISA_SD_SF_iEEEEED2Ev@Base 2.4.5
 (optional=templinst)_ZN5boost6python7objects23caller_py_function_implINS0_6detail6callerIPFNSt7__cxx1112basic_stringIcSt11char_traitsIcESaIcEEERKNS0_4listERKSA_iENS0_21default_call_policiesENS_3mpl7vector4ISA_SD_SF_iEEEEEclEP7_objectSP_@Base 2.4.5
 (optional=templinst)_ZN5boost6python7objects23caller_py_function_implINS0_6detail6callerIPFNSt7__cxx1112basic_stringIcSt11char_traitsIcESaIcEEERKSA_ENS0_21default_call_policiesENS_3mpl7vector2ISA_SC_EEEEED0Ev@Base 2.4.5
 (optional=templinst)_ZN5boost6python7objects23caller_py_function_implINS0_6detail6callerIPFNSt7__cxx1112basic_stringIcSt11char_traitsIcESaIcEEERKSA_ENS0_21default_call_policiesENS_3mpl7vector2ISA_SC_EEEEED1Ev@Base 2.4.5
 (optional=templinst)_ZN5boost6python7objects23caller_py_function_implINS0_6detail6callerIPFNSt7__cxx1112basic_stringIcSt11char_traitsIcESaIcEEERKSA_ENS0_21default_call_policiesENS_3mpl7vector2ISA_SC_EEEEED2Ev@Base 2.4.5
 (optional=templinst)_ZN5boost6python7objects23caller_py_function_implINS0_6detail6callerIPFNSt7__cxx1112basic_stringIcSt11char_traitsIcESaIcEEERKSA_ENS0_21default_call_policiesENS_3mpl7vector2ISA_SC_EEEEEclEP7_objectSM_@Base 2.4.5
 (optional=templinst)_ZN5boost6python7objects23caller_py_function_implINS0_6detail6callerIPFNSt7__cxx1112basic_stringIcSt11char_traitsIcESaIcEEERKSA_SC_ENS0_21default_call_policiesENS_3mpl7vector3ISA_SC_SC_EEEEED0Ev@Base 2.4.5
 (optional=templinst)_ZN5boost6python7objects23caller_py_function_implINS0_6detail6callerIPFNSt7__cxx1112basic_stringIcSt11char_traitsIcESaIcEEERKSA_SC_ENS0_21default_call_policiesENS_3mpl7vector3ISA_SC_SC_EEEEED1Ev@Base 2.4.5
 (optional=templinst)_ZN5boost6python7objects23caller_py_function_implINS0_6detail6callerIPFNSt7__cxx1112basic_stringIcSt11char_traitsIcESaIcEEERKSA_SC_ENS0_21default_call_policiesENS_3mpl7vector3ISA_SC_SC_EEEEED2Ev@Base 2.4.5
 (optional=templinst)_ZN5boost6python7objects23caller_py_function_implINS0_6detail6callerIPFNSt7__cxx1112basic_stringIcSt11char_traitsIcESaIcEEERKSA_SC_ENS0_21default_call_policiesENS_3mpl7vector3ISA_SC_SC_EEEEEclEP7_objectSM_@Base 2.4.5
 (optional=templinst)_ZN5boost6python7objects23caller_py_function_implINS0_6detail6callerIPFNSt7__cxx1112basic_stringIcSt11char_traitsIcESaIcEEERKSA_SC_iENS0_21default_call_policiesENS_3mpl7vector4ISA_SC_SC_iEEEEED0Ev@Base 2.4.5
 (optional=templinst)_ZN5boost6python7objects23caller_py_function_implINS0_6detail6callerIPFNSt7__cxx1112basic_stringIcSt11char_traitsIcESaIcEEERKSA_SC_iENS0_21default_call_policiesENS_3mpl7vector4ISA_SC_SC_iEEEEED1Ev@Base 2.4.5
 (optional=templinst)_ZN5boost6python7objects23caller_py_function_implINS0_6detail6callerIPFNSt7__cxx1112basic_stringIcSt11char_traitsIcESaIcEEERKSA_SC_iENS0_21default_call_policiesENS_3mpl7vector4ISA_SC_SC_iEEEEED2Ev@Base 2.4.5
 (optional=templinst)_ZN5boost6python7objects23caller_py_function_implINS0_6detail6callerIPFNSt7__cxx1112basic_stringIcSt11char_traitsIcESaIcEEERKSA_SC_iENS0_21default_call_policiesENS_3mpl7vector4ISA_SC_SC_iEEEEEclEP7_objectSM_@Base 2.4.5
 (optional=templinst)_ZN5boost6python7objects23caller_py_function_implINS0_6detail6callerIPFiRKNS0_4listEENS0_21default_call_policiesENS_3mpl7vector2IiS7_EEEEED0Ev@Base 2.4.5
 (optional=templinst)_ZN5boost6python7objects23caller_py_function_implINS0_6detail6callerIPFiRKNS0_4listEENS0_21default_call_policiesENS_3mpl7vector2IiS7_EEEEED1Ev@Base 2.4.5
 (optional=templinst)_ZN5boost6python7objects23caller_py_function_implINS0_6detail6callerIPFiRKNS0_4listEENS0_21default_call_policiesENS_3mpl7vector2IiS7_EEEEED2Ev@Base 2.4.5
 (optional=templinst)_ZN5boost6python7objects23caller_py_function_implINS0_6detail6callerIPFiRKNS0_4listEENS0_21default_call_policiesENS_3mpl7vector2IiS7_EEEEEclEP7_objectSH_@Base 2.4.5
 (optional=templinst)_ZN5boost6python7objects23caller_py_function_implINS0_6detail6callerIPFiRKNS0_4listERKNSt7__cxx1112basic_stringIcSt11char_traitsIcESaIcEEEENS0_21default_call_policiesENS_3mpl7vector3IiS7_SF_EEEEED0Ev@Base 2.4.5
 (optional=templinst)_ZN5boost6python7objects23caller_py_function_implINS0_6detail6callerIPFiRKNS0_4listERKNSt7__cxx1112basic_stringIcSt11char_traitsIcESaIcEEEENS0_21default_call_policiesENS_3mpl7vector3IiS7_SF_EEEEED1Ev@Base 2.4.5
 (optional=templinst)_ZN5boost6python7objects23caller_py_function_implINS0_6detail6callerIPFiRKNS0_4listERKNSt7__cxx1112basic_stringIcSt11char_traitsIcESaIcEEEENS0_21default_call_policiesENS_3mpl7vector3IiS7_SF_EEEEED2Ev@Base 2.4.5
 (optional=templinst)_ZN5boost6python7objects23caller_py_function_implINS0_6detail6callerIPFiRKNS0_4listERKNSt7__cxx1112basic_stringIcSt11char_traitsIcESaIcEEEENS0_21default_call_policiesENS_3mpl7vector3IiS7_SF_EEEEEclEP7_objectSP_@Base 2.4.5
 (optional=templinst)_ZN5boost6python7objects23caller_py_function_implINS0_6detail6callerIPFiRKNS0_4listERKNSt7__cxx1112basic_stringIcSt11char_traitsIcESaIcEEEiENS0_21default_call_policiesENS_3mpl7vector4IiS7_SF_iEEEEED0Ev@Base 2.4.5
 (optional=templinst)_ZN5boost6python7objects23caller_py_function_implINS0_6detail6callerIPFiRKNS0_4listERKNSt7__cxx1112basic_stringIcSt11char_traitsIcESaIcEEEiENS0_21default_call_policiesENS_3mpl7vector4IiS7_SF_iEEEEED1Ev@Base 2.4.5
 (optional=templinst)_ZN5boost6python7objects23caller_py_function_implINS0_6detail6callerIPFiRKNS0_4listERKNSt7__cxx1112basic_stringIcSt11char_traitsIcESaIcEEEiENS0_21default_call_policiesENS_3mpl7vector4IiS7_SF_iEEEEED2Ev@Base 2.4.5
 (optional=templinst)_ZN5boost6python7objects23caller_py_function_implINS0_6detail6callerIPFiRKNS0_4listERKNSt7__cxx1112basic_stringIcSt11char_traitsIcESaIcEEEiENS0_21default_call_policiesENS_3mpl7vector4IiS7_SF_iEEEEEclEP7_objectSP_@Base 2.4.5
 (optional=templinst)_ZN5boost6python7objects23caller_py_function_implINS0_6detail6callerIPFiRKNSt7__cxx1112basic_stringIcSt11char_traitsIcESaIcEEEENS0_21default_call_policiesENS_3mpl7vector2IiSC_EEEEED0Ev@Base 2.4.5
 (optional=templinst)_ZN5boost6python7objects23caller_py_function_implINS0_6detail6callerIPFiRKNSt7__cxx1112basic_stringIcSt11char_traitsIcESaIcEEEENS0_21default_call_policiesENS_3mpl7vector2IiSC_EEEEED1Ev@Base 2.4.5
 (optional=templinst)_ZN5boost6python7objects23caller_py_function_implINS0_6detail6callerIPFiRKNSt7__cxx1112basic_stringIcSt11char_traitsIcESaIcEEEENS0_21default_call_policiesENS_3mpl7vector2IiSC_EEEEED2Ev@Base 2.4.5
 (optional=templinst)_ZN5boost6python7objects23caller_py_function_implINS0_6detail6callerIPFiRKNSt7__cxx1112basic_stringIcSt11char_traitsIcESaIcEEEENS0_21default_call_policiesENS_3mpl7vector2IiSC_EEEEEclEP7_objectSM_@Base 2.4.5
 (optional=templinst)_ZN5boost6python7objects23caller_py_function_implINS0_6detail6callerIPFiRKNSt7__cxx1112basic_stringIcSt11char_traitsIcESaIcEEESC_ENS0_21default_call_policiesENS_3mpl7vector3IiSC_SC_EEEEED0Ev@Base 2.4.5
 (optional=templinst)_ZN5boost6python7objects23caller_py_function_implINS0_6detail6callerIPFiRKNSt7__cxx1112basic_stringIcSt11char_traitsIcESaIcEEESC_ENS0_21default_call_policiesENS_3mpl7vector3IiSC_SC_EEEEED1Ev@Base 2.4.5
 (optional=templinst)_ZN5boost6python7objects23caller_py_function_implINS0_6detail6callerIPFiRKNSt7__cxx1112basic_stringIcSt11char_traitsIcESaIcEEESC_ENS0_21default_call_policiesENS_3mpl7vector3IiSC_SC_EEEEED2Ev@Base 2.4.5
 (optional=templinst)_ZN5boost6python7objects23caller_py_function_implINS0_6detail6callerIPFiRKNSt7__cxx1112basic_stringIcSt11char_traitsIcESaIcEEESC_ENS0_21default_call_policiesENS_3mpl7vector3IiSC_SC_EEEEEclEP7_objectSM_@Base 2.4.5
 (optional=templinst)_ZN5boost6python7objects23caller_py_function_implINS0_6detail6callerIPFiRKNSt7__cxx1112basic_stringIcSt11char_traitsIcESaIcEEESC_SC_ENS0_21default_call_policiesENS_3mpl7vector4IiSC_SC_SC_EEEEED0Ev@Base 2.4.5
 (optional=templinst)_ZN5boost6python7objects23caller_py_function_implINS0_6detail6callerIPFiRKNSt7__cxx1112basic_stringIcSt11char_traitsIcESaIcEEESC_SC_ENS0_21default_call_policiesENS_3mpl7vector4IiSC_SC_SC_EEEEED1Ev@Base 2.4.5
 (optional=templinst)_ZN5boost6python7objects23caller_py_function_implINS0_6detail6callerIPFiRKNSt7__cxx1112basic_stringIcSt11char_traitsIcESaIcEEESC_SC_ENS0_21default_call_policiesENS_3mpl7vector4IiSC_SC_SC_EEEEED2Ev@Base 2.4.5
 (optional=templinst)_ZN5boost6python7objects23caller_py_function_implINS0_6detail6callerIPFiRKNSt7__cxx1112basic_stringIcSt11char_traitsIcESaIcEEESC_SC_ENS0_21default_call_policiesENS_3mpl7vector4IiSC_SC_SC_EEEEEclEP7_objectSM_@Base 2.4.5
 (optional=templinst)_ZN5boost6python7objects23caller_py_function_implINS0_6detail6callerIPFiRKNSt7__cxx1112basic_stringIcSt11char_traitsIcESaIcEEESC_SC_SC_ENS0_21default_call_policiesENS_3mpl7vector5IiSC_SC_SC_SC_EEEEED0Ev@Base 2.4.5
 (optional=templinst)_ZN5boost6python7objects23caller_py_function_implINS0_6detail6callerIPFiRKNSt7__cxx1112basic_stringIcSt11char_traitsIcESaIcEEESC_SC_SC_ENS0_21default_call_policiesENS_3mpl7vector5IiSC_SC_SC_SC_EEEEED1Ev@Base 2.4.5
 (optional=templinst)_ZN5boost6python7objects23caller_py_function_implINS0_6detail6callerIPFiRKNSt7__cxx1112basic_stringIcSt11char_traitsIcESaIcEEESC_SC_SC_ENS0_21default_call_policiesENS_3mpl7vector5IiSC_SC_SC_SC_EEEEED2Ev@Base 2.4.5
 (optional=templinst)_ZN5boost6python7objects23caller_py_function_implINS0_6detail6callerIPFiRKNSt7__cxx1112basic_stringIcSt11char_traitsIcESaIcEEESC_SC_SC_ENS0_21default_call_policiesENS_3mpl7vector5IiSC_SC_SC_SC_EEEEEclEP7_objectSM_@Base 2.4.5
 (optional=templinst)_ZN5boost6python7objects23caller_py_function_implINS0_6detail6callerIPFiRKNSt7__cxx1112basic_stringIcSt11char_traitsIcESaIcEEESC_iENS0_21default_call_policiesENS_3mpl7vector4IiSC_SC_iEEEEED0Ev@Base 2.4.5
 (optional=templinst)_ZN5boost6python7objects23caller_py_function_implINS0_6detail6callerIPFiRKNSt7__cxx1112basic_stringIcSt11char_traitsIcESaIcEEESC_iENS0_21default_call_policiesENS_3mpl7vector4IiSC_SC_iEEEEED1Ev@Base 2.4.5
 (optional=templinst)_ZN5boost6python7objects23caller_py_function_implINS0_6detail6callerIPFiRKNSt7__cxx1112basic_stringIcSt11char_traitsIcESaIcEEESC_iENS0_21default_call_policiesENS_3mpl7vector4IiSC_SC_iEEEEED2Ev@Base 2.4.5
 (optional=templinst)_ZN5boost6python7objects23caller_py_function_implINS0_6detail6callerIPFiRKNSt7__cxx1112basic_stringIcSt11char_traitsIcESaIcEEESC_iENS0_21default_call_policiesENS_3mpl7vector4IiSC_SC_iEEEEEclEP7_objectSM_@Base 2.4.5
 (optional=templinst)_ZN5boost6python7objects23caller_py_function_implINS0_6detail6callerIPFvP7_objectPN9Calamares13GlobalStorageEENS0_21default_call_policiesENS_3mpl7vector3IvS6_S9_EEEEED0Ev@Base 2.4.5
 (optional=templinst)_ZN5boost6python7objects23caller_py_function_implINS0_6detail6callerIPFvP7_objectPN9Calamares13GlobalStorageEENS0_21default_call_policiesENS_3mpl7vector3IvS6_S9_EEEEED1Ev@Base 2.4.5
 (optional=templinst)_ZN5boost6python7objects23caller_py_function_implINS0_6detail6callerIPFvP7_objectPN9Calamares13GlobalStorageEENS0_21default_call_policiesENS_3mpl7vector3IvS6_S9_EEEEED2Ev@Base 2.4.5
 (optional=templinst)_ZN5boost6python7objects23caller_py_function_implINS0_6detail6callerIPFvP7_objectPN9Calamares13GlobalStorageEENS0_21default_call_policiesENS_3mpl7vector3IvS6_S9_EEEEEclES6_S6_@Base 2.4.5
 (optional=templinst)_ZN5boost6python7objects23caller_py_function_implINS0_6detail6callerIPFvP7_objectPN9Calamares9PythonJobEENS0_21default_call_policiesENS_3mpl7vector3IvS6_S9_EEEEED0Ev@Base 2.4.5
 (optional=templinst)_ZN5boost6python7objects23caller_py_function_implINS0_6detail6callerIPFvP7_objectPN9Calamares9PythonJobEENS0_21default_call_policiesENS_3mpl7vector3IvS6_S9_EEEEED1Ev@Base 2.4.5
 (optional=templinst)_ZN5boost6python7objects23caller_py_function_implINS0_6detail6callerIPFvP7_objectPN9Calamares9PythonJobEENS0_21default_call_policiesENS_3mpl7vector3IvS6_S9_EEEEED2Ev@Base 2.4.5
 (optional=templinst)_ZN5boost6python7objects23caller_py_function_implINS0_6detail6callerIPFvP7_objectPN9Calamares9PythonJobEENS0_21default_call_policiesENS_3mpl7vector3IvS6_S9_EEEEEclES6_S6_@Base 2.4.5
 (optional=templinst)_ZN5boost6python7objects23caller_py_function_implINS0_6detail6callerIPFvRKNSt7__cxx1112basic_stringIcSt11char_traitsIcESaIcEEEENS0_21default_call_policiesENS_3mpl7vector2IvSC_EEEEED0Ev@Base 2.4.5
 (optional=templinst)_ZN5boost6python7objects23caller_py_function_implINS0_6detail6callerIPFvRKNSt7__cxx1112basic_stringIcSt11char_traitsIcESaIcEEEENS0_21default_call_policiesENS_3mpl7vector2IvSC_EEEEED1Ev@Base 2.4.5
 (optional=templinst)_ZN5boost6python7objects23caller_py_function_implINS0_6detail6callerIPFvRKNSt7__cxx1112basic_stringIcSt11char_traitsIcESaIcEEEENS0_21default_call_policiesENS_3mpl7vector2IvSC_EEEEED2Ev@Base 2.4.5
 (optional=templinst)_ZN5boost6python7objects23caller_py_function_implINS0_6detail6callerIPFvRKNSt7__cxx1112basic_stringIcSt11char_traitsIcESaIcEEEENS0_21default_call_policiesENS_3mpl7vector2IvSC_EEEEEclEP7_objectSM_@Base 2.4.5
 (optional=templinst)_ZN5boost6python7objects28non_polymorphic_id_generatorIN15CalamaresPython18PythonJobInterfaceEE7executeEPv@Base 2.4.5
 (optional=templinst)_ZN5boost6python7objects28non_polymorphic_id_generatorIN15CalamaresPython26GlobalStoragePythonWrapperEE7executeEPv@Base 2.4.5
 (optional=templinst)_ZN5boost6python9converter21as_to_python_functionIN15CalamaresPython18PythonJobInterfaceENS0_7objects18class_cref_wrapperIS4_NS5_13make_instanceIS4_NS5_12value_holderIS4_EEEEEEE7convertEPKv@Base 2.4.5
 (optional=templinst)_ZN5boost6python9converter21as_to_python_functionIN15CalamaresPython26GlobalStoragePythonWrapperENS0_7objects18class_cref_wrapperIS4_NS5_13make_instanceIS4_NS5_12value_holderIS4_EEEEEEE7convertEPKv@Base 2.4.5
 (optional=templinst)_ZN5boost6python9converter22shared_ptr_from_pythonIN15CalamaresPython18PythonJobInterfaceEE11convertibleEP7_object@Base 2.4.5
 (optional=templinst)_ZN5boost6python9converter22shared_ptr_from_pythonIN15CalamaresPython18PythonJobInterfaceEE9constructEP7_objectPNS1_30rvalue_from_python_stage1_dataE@Base 2.4.5
 (optional=templinst)_ZN5boost6python9converter22shared_ptr_from_pythonIN15CalamaresPython26GlobalStoragePythonWrapperEE11convertibleEP7_object@Base 2.4.5
 (optional=templinst)_ZN5boost6python9converter22shared_ptr_from_pythonIN15CalamaresPython26GlobalStoragePythonWrapperEE9constructEP7_objectPNS1_30rvalue_from_python_stage1_dataE@Base 2.4.5
 (optional=templinst)_ZN5boost6python9converter23expected_pytype_for_argINS0_3api6objectEE10get_pytypeEv@Base 2.4.5
 (optional=templinst)_ZN5boost6python9converter23expected_pytype_for_argINS0_4listEE10get_pytypeEv@Base 2.4.5
 (optional=templinst)_ZN5boost6python9converter23expected_pytype_for_argINSt7__cxx1112basic_stringIcSt11char_traitsIcESaIcEEEE10get_pytypeEv@Base 2.4.5
 (optional=templinst)_ZN5boost6python9converter23expected_pytype_for_argIP7_objectE10get_pytypeEv@Base 2.4.5
 (optional=templinst)_ZN5boost6python9converter23expected_pytype_for_argIPN9Calamares13GlobalStorageEE10get_pytypeEv@Base 2.4.5
 (optional=templinst)_ZN5boost6python9converter23expected_pytype_for_argIPN9Calamares9PythonJobEE10get_pytypeEv@Base 2.4.5
 (optional=templinst)_ZN5boost6python9converter23expected_pytype_for_argIRKNS0_3api6objectEE10get_pytypeEv@Base 2.4.5
 (optional=templinst)_ZN5boost6python9converter23expected_pytype_for_argIRKNS0_4listEE10get_pytypeEv@Base 2.4.5
 (optional=templinst)_ZN5boost6python9converter23expected_pytype_for_argIRKNSt7__cxx1112basic_stringIcSt11char_traitsIcESaIcEEEE10get_pytypeEv@Base 2.4.5
 (optional=templinst)_ZN5boost6python9converter23expected_pytype_for_argIRN15CalamaresPython18PythonJobInterfaceEE10get_pytypeEv@Base 2.4.5
 (optional=templinst)_ZN5boost6python9converter23expected_pytype_for_argIRN15CalamaresPython26GlobalStoragePythonWrapperEE10get_pytypeEv@Base 2.4.5
 (optional=templinst)_ZN5boost6python9converter23expected_pytype_for_argIRNS0_4dictEE10get_pytypeEv@Base 2.4.5
 (optional=templinst)_ZN5boost6python9converter23expected_pytype_for_argIRNSt7__cxx1112basic_stringIcSt11char_traitsIcESaIcEEEE10get_pytypeEv@Base 2.4.5
 (optional=templinst)_ZN5boost6python9converter23expected_pytype_for_argIbE10get_pytypeEv@Base 2.4.5
 (optional=templinst)_ZN5boost6python9converter23expected_pytype_for_argIdE10get_pytypeEv@Base 2.4.5
 (optional=templinst)_ZN5boost6python9converter23expected_pytype_for_argIiE10get_pytypeEv@Base 2.4.5
 (optional=templinst)_ZN5boost6python9converter23expected_pytype_for_argIvE10get_pytypeEv@Base 2.4.5
 (optional=templinst)_ZN5boost6python9converter32expected_from_python_type_directIN15CalamaresPython18PythonJobInterfaceEE10get_pytypeEv@Base 2.4.5
 (optional=templinst)_ZN5boost6python9converter32expected_from_python_type_directIN15CalamaresPython26GlobalStoragePythonWrapperEE10get_pytypeEv@Base 2.4.5
 _ZN5boost6python9converter6detail15registered_baseIRVKN15CalamaresPython18PythonJobInterfaceEE10convertersE@Base 2.4.5
 _ZN5boost6python9converter6detail15registered_baseIRVKN15CalamaresPython26GlobalStoragePythonWrapperEE10convertersE@Base 2.4.5
 _ZN5boost6python9converter6detail15registered_baseIRVKN9Calamares13GlobalStorageEE10convertersE@Base 2.4.5
 _ZN5boost6python9converter6detail15registered_baseIRVKN9Calamares9PythonJobEE10convertersE@Base 2.4.5
 _ZN5boost6python9converter6detail15registered_baseIRVKNSt7__cxx1112basic_stringIcSt11char_traitsIcESaIcEEEE10convertersE@Base 2.4.5
 _ZN5boost6python9converter6detail15registered_baseIRVKbE10convertersE@Base 2.4.5
 _ZN5boost6python9converter6detail15registered_baseIRVKdE10convertersE@Base 2.4.5
 _ZN5boost6python9converter6detail15registered_baseIRVKiE10convertersE@Base 2.4.5
 _ZN6Logger12setupLogfileEv@Base 2.4.5
 _ZN6Logger19CalamaresLogHandlerE9QtMsgTypeRK18QMessageLogContextRK7QString@Base 2.4.5
 _ZN6Logger4CLogC1Ej@Base 2.4.5
 _ZN6Logger4CLogC2Ej@Base 2.4.5
 _ZN6Logger4CLogD0Ev@Base 2.4.5
 _ZN6Logger4CLogD1Ev@Base 2.4.5
 _ZN6Logger4CLogD2Ev@Base 2.4.5
 _ZN6Logger6CDebugD0Ev@Base 2.4.5
 _ZN6Logger6CDebugD1Ev@Base 2.4.5
 _ZN6Logger6CDebugD2Ev@Base 2.4.5
 _ZN6Logger7logFileEv@Base 2.4.5
 _ZN7QStringD1Ev@Base 2.4.5
 _ZN7QStringD2Ev@Base 2.4.5
 (optional=templinst)_ZN7QVectorIN24KDSingleApplicationGuard8InstanceEE11reallocDataEii6QFlagsIN10QArrayData16AllocationOptionEE@Base 2.4.5
 (optional=templinst)_ZN7QVectorIN24KDSingleApplicationGuard8InstanceEE6appendEOS1_@Base 2.4.5
 (optional=templinst)_ZN7QVectorIN24KDSingleApplicationGuard8InstanceEED1Ev@Base 2.4.5
 (optional=templinst)_ZN7QVectorIN24KDSingleApplicationGuard8InstanceEED2Ev@Base 2.4.5
 _ZN7kdtools20KDSharedMemoryLockerC1EP13QSharedMemory@Base 2.4.5
 _ZN7kdtools20KDSharedMemoryLockerC2EP13QSharedMemory@Base 2.4.5
 _ZN7kdtools20KDSharedMemoryLockerD1Ev@Base 2.4.5
 _ZN7kdtools20KDSharedMemoryLockerD2Ev@Base 2.4.5
 _ZN7kdtools31KDLockedSharedMemoryPointerBase3getEv@Base 2.4.5
 _ZN7kdtools31KDLockedSharedMemoryPointerBaseC1EP13QSharedMemory@Base 2.4.5
 _ZN7kdtools31KDLockedSharedMemoryPointerBaseC1ER13QSharedMemory@Base 2.4.5
 _ZN7kdtools31KDLockedSharedMemoryPointerBaseC2EP13QSharedMemory@Base 2.4.5
 _ZN7kdtools31KDLockedSharedMemoryPointerBaseC2ER13QSharedMemory@Base 2.4.5
 _ZN7kdtools31KDLockedSharedMemoryPointerBaseD1Ev@Base 2.4.5
 _ZN7kdtools31KDLockedSharedMemoryPointerBaseD2Ev@Base 2.4.5
 (optional=templinst)_ZN7kdtools9pimpl_ptrIN24KDSingleApplicationGuard7PrivateEED1Ev@Base 2.4.5
 (optional=templinst)_ZN7kdtools9pimpl_ptrIN24KDSingleApplicationGuard7PrivateEED2Ev@Base 2.4.5
 (optional=templinst)_ZN8QMapNodeI7QString8QVariantE14destroySubTreeEv@Base 2.4.5
 _ZN9Calamares10ProcessJob10callOutputERK7QStringRS1_S3_S3_i@Base 2.4.5
 _ZN9Calamares10ProcessJob11qt_metacallEN11QMetaObject4CallEiPPv@Base 2.4.5
 _ZN9Calamares10ProcessJob11qt_metacastEPKc@Base 2.4.5
 _ZN9Calamares10ProcessJob16staticMetaObjectE@Base 2.4.5
 _ZN9Calamares10ProcessJob4execEv@Base 2.4.5
 _ZN9Calamares10ProcessJobC1ERK7QStringS3_biP7QObject@Base 2.4.5
 _ZN9Calamares10ProcessJobC2ERK7QStringS3_biP7QObject@Base 2.4.5
 _ZN9Calamares10ProcessJobD0Ev@Base 2.4.5
 _ZN9Calamares10ProcessJobD1Ev@Base 2.4.5
 _ZN9Calamares10ProcessJobD2Ev@Base 2.4.5
 _ZN9Calamares13GlobalStorage11qt_metacallEN11QMetaObject4CallEiPPv@Base 2.4.5
 _ZN9Calamares13GlobalStorage11qt_metacastEPKc@Base 2.4.5
 _ZN9Calamares13GlobalStorage16staticMetaObjectE@Base 2.4.5
 _ZN9Calamares13GlobalStorage6insertERK7QStringRK8QVariant@Base 2.4.5
 _ZN9Calamares13GlobalStorage6removeERK7QString@Base 2.4.5
 _ZN9Calamares13GlobalStorage7changedEv@Base 2.4.5
 _ZN9Calamares13GlobalStorageC1Ev@Base 2.4.5
 _ZN9Calamares13GlobalStorageC2Ev@Base 2.4.5
 _ZN9Calamares13GlobalStorageD0Ev@Base 2.4.5
 _ZN9Calamares13GlobalStorageD1Ev@Base 2.4.5
 _ZN9Calamares13GlobalStorageD2Ev@Base 2.4.5
 _ZN9Calamares13PluginFactory11qt_metacallEN11QMetaObject4CallEiPPv@Base 2.4.5
 _ZN9Calamares13PluginFactory11qt_metacastEPKc@Base 2.4.5
 _ZN9Calamares13PluginFactory13objectCreatedEP7QObject@Base 2.4.5
 _ZN9Calamares13PluginFactory16doRegisterPluginERK7QStringPK11QMetaObjectPFP7QObjectP7QWidgetS8_E@Base 2.4.5
 _ZN9Calamares13PluginFactory16staticMetaObjectE@Base 2.4.5
 _ZN9Calamares13PluginFactory6createEPKcP7QWidgetP7QObjectRK7QString@Base 2.4.5
 _ZN9Calamares13PluginFactoryC1ERNS_20PluginFactoryPrivateE@Base 2.4.5
 _ZN9Calamares13PluginFactoryC1Ev@Base 2.4.5
 _ZN9Calamares13PluginFactoryC2ERNS_20PluginFactoryPrivateE@Base 2.4.5
 _ZN9Calamares13PluginFactoryC2Ev@Base 2.4.5
 _ZN9Calamares13PluginFactoryD0Ev@Base 2.4.5
 _ZN9Calamares13PluginFactoryD1Ev@Base 2.4.5
 _ZN9Calamares13PluginFactoryD2Ev@Base 2.4.5
 _ZN9Calamares3Job11qt_metacallEN11QMetaObject4CallEiPPv@Base 2.4.5
 _ZN9Calamares3Job11qt_metacastEPKc@Base 2.4.5
 _ZN9Calamares3Job16staticMetaObjectE@Base 2.4.5
 _ZN9Calamares3Job8progressEd@Base 2.4.5
 _ZN9Calamares3JobC1EP7QObject@Base 2.4.5
 _ZN9Calamares3JobC2EP7QObject@Base 2.4.5
 _ZN9Calamares3JobD0Ev@Base 2.4.5
 _ZN9Calamares3JobD1Ev@Base 2.4.5
 _ZN9Calamares3JobD2Ev@Base 2.4.5
 _ZN9Calamares6CppJob11qt_metacallEN11QMetaObject4CallEiPPv@Base 2.4.5
 _ZN9Calamares6CppJob11qt_metacastEPKc@Base 2.4.5
 _ZN9Calamares6CppJob16staticMetaObjectE@Base 2.4.5
 _ZN9Calamares6CppJob19setConfigurationMapERK4QMapI7QString8QVariantE@Base 2.4.5
 _ZN9Calamares6CppJob20setModuleInstanceKeyERK7QString@Base 2.4.5
 _ZN9Calamares6CppJobC1EP7QObject@Base 2.4.5
 _ZN9Calamares6CppJobC2EP7QObject@Base 2.4.5
 _ZN9Calamares6CppJobD0Ev@Base 2.4.5
 _ZN9Calamares6CppJobD1Ev@Base 2.4.5
 _ZN9Calamares6CppJobD2Ev@Base 2.4.5
 _ZN9Calamares8JobQueue10s_instanceE@Base 2.4.5
 _ZN9Calamares8JobQueue11qt_metacallEN11QMetaObject4CallEiPPv@Base 2.4.5
 _ZN9Calamares8JobQueue11qt_metacastEPKc@Base 2.4.5
 _ZN9Calamares8JobQueue12queueChangedERK5QListI14QSharedPointerINS_3JobEEE@Base 2.4.5
 _ZN9Calamares8JobQueue16staticMetaObjectE@Base 2.4.5
 _ZN9Calamares8JobQueue5startEv@Base 2.4.5
 _ZN9Calamares8JobQueue6failedERK7QStringS3_@Base 2.4.5
 _ZN9Calamares8JobQueue7enqueueERK14QSharedPointerINS_3JobEE@Base 2.4.5
 _ZN9Calamares8JobQueue7enqueueERK5QListI14QSharedPointerINS_3JobEEE@Base 2.4.5
 _ZN9Calamares8JobQueue8finishedEv@Base 2.4.5
 _ZN9Calamares8JobQueue8instanceEv@Base 2.4.5
 _ZN9Calamares8JobQueue8progressEdRK7QString@Base 2.4.5
 _ZN9Calamares8JobQueueC1EP7QObject@Base 2.4.5
 _ZN9Calamares8JobQueueC2EP7QObject@Base 2.4.5
 _ZN9Calamares8JobQueueD0Ev@Base 2.4.5
 _ZN9Calamares8JobQueueD1Ev@Base 2.4.5
 _ZN9Calamares8JobQueueD2Ev@Base 2.4.5
 _ZN9Calamares9JobResult10setDetailsERK7QString@Base 2.4.5
 _ZN9Calamares9JobResult10setMessageERK7QString@Base 2.4.5
 _ZN9Calamares9JobResult2okEv@Base 2.4.5
 _ZN9Calamares9JobResult5errorERK7QStringS3_@Base 2.4.5
 _ZN9Calamares9JobResultC1EbRK7QStringS3_@Base 2.4.5
 _ZN9Calamares9JobResultC2EbRK7QStringS3_@Base 2.4.5
 _ZN9Calamares9JobThread11qt_metacallEN11QMetaObject4CallEiPPv@Base 2.4.5
 _ZN9Calamares9JobThread11qt_metacastEPKc@Base 2.4.5
 _ZN9Calamares9JobThread12emitProgressEd@Base 2.4.5
 _ZN9Calamares9JobThread16staticMetaObjectE@Base 2.4.5
 _ZN9Calamares9JobThread3runEv@Base 2.4.5
 _ZN9Calamares9JobThreadD0Ev@Base 2.4.5
 _ZN9Calamares9JobThreadD1Ev@Base 2.4.5
 _ZN9Calamares9JobThreadD2Ev@Base 2.4.5
 _ZN9Calamares9PythonJob11qt_metacallEN11QMetaObject4CallEiPPv@Base 2.4.5
 _ZN9Calamares9PythonJob11qt_metacastEPKc@Base 2.4.5
 _ZN9Calamares9PythonJob12emitProgressEd@Base 2.4.5
 _ZN9Calamares9PythonJob16staticMetaObjectE@Base 2.4.5
 _ZN9Calamares9PythonJob4execEv@Base 2.4.5
 _ZN9Calamares9PythonJob6helperEv@Base 2.4.5
 _ZN9Calamares9PythonJobC1ERK7QStringS3_RK4QMapIS1_8QVariantEP7QObject@Base 2.4.5
 _ZN9Calamares9PythonJobC2ERK7QStringS3_RK4QMapIS1_8QVariantEP7QObject@Base 2.4.5
 _ZN9Calamares9PythonJobD0Ev@Base 2.4.5
 _ZN9Calamares9PythonJobD1Ev@Base 2.4.5
 _ZN9Calamares9PythonJobD2Ev@Base 2.4.5
 (optional=templinst)_ZN9QtPrivate11QSlotObjectIMN9Calamares9JobThreadEFvdENS_4ListIJdEEEvE4implEiPNS_15QSlotObjectBaseEP7QObjectPPvPb@Base 2.4.5
 _ZNK11ProcessInfo9argumentsEPb@Base 2.4.5
 _ZNK14CalamaresUtils12Retranslator10metaObjectEv@Base 2.4.5
 _ZNK14CalamaresUtils6System10metaObjectEv@Base 2.4.5
 _ZNK15CalamaresPython26GlobalStoragePythonWrapper4keysEv@Base 2.4.5
 _ZNK15CalamaresPython26GlobalStoragePythonWrapper5countEv@Base 2.4.5
 _ZNK15CalamaresPython26GlobalStoragePythonWrapper5valueERKNSt7__cxx1112basic_stringIcSt11char_traitsIcESaIcEEE@Base 2.4.5
 _ZNK15CalamaresPython26GlobalStoragePythonWrapper8containsERKNSt7__cxx1112basic_stringIcSt11char_traitsIcESaIcEEE@Base 2.4.5
 _ZNK15CalamaresPython6Helper10metaObjectEv@Base 2.4.5
 _ZNK24KDSingleApplicationGuard10metaObjectEv@Base 2.4.5
 _ZNK24KDSingleApplicationGuard13isOperationalEv@Base 2.4.5
 _ZNK24KDSingleApplicationGuard15isExitRequestedEv@Base 2.4.5
 _ZNK24KDSingleApplicationGuard17isPrimaryInstanceEv@Base 2.4.5
 _ZNK24KDSingleApplicationGuard6policyEv@Base 2.4.5
 _ZNK24KDSingleApplicationGuard7Private16checkOperationalEPKcS2_@Base 2.4.5
 _ZNK24KDSingleApplicationGuard7Private23checkOperationalPrimaryEPKcS2_@Base 2.4.5
 _ZNK24KDSingleApplicationGuard8Instance21areArgumentsTruncatedEv@Base 2.4.5
 _ZNK24KDSingleApplicationGuard8Instance3pidEv@Base 2.4.5
 _ZNK24KDSingleApplicationGuard8Instance7isValidEv@Base 2.4.5
 _ZNK24KDSingleApplicationGuard8Instance9argumentsEv@Base 2.4.5
 _ZNK24KDSingleApplicationGuard9instancesEv@Base 2.4.5
 (optional=templinst)_ZNK5QHashI7QString5QPairIPK11QMetaObjectPFP7QObjectP7QWidgetS6_EEE6valuesERKS0_@Base 2.4.5
 (optional=templinst)_ZNK5QHashI7QString5QPairIPK11QMetaObjectPFP7QObjectP7QWidgetS6_EEE8findNodeERKS0_Pj@Base 2.4.5
 (optional=templinst)_ZNK5QHashI7QString8QVariantE8findNodeERKS0_j@Base 2.4.5
 (optional=templinst)_ZNK5boost6python7objects23caller_py_function_implINS0_6detail6callerIMN15CalamaresPython18PythonJobInterfaceEFvdENS0_21default_call_policiesENS_3mpl7vector3IvRS6_dEEEEE9min_arityEv@Base 2.4.5
 (optional=templinst)_ZNK5boost6python7objects23caller_py_function_implINS0_6detail6callerIMN15CalamaresPython18PythonJobInterfaceEFvdENS0_21default_call_policiesENS_3mpl7vector3IvRS6_dEEEEE9signatureEv@Base 2.4.5
 (optional=templinst)_ZNK5boost6python7objects23caller_py_function_implINS0_6detail6callerIMN15CalamaresPython26GlobalStoragePythonWrapperEFiRKNSt7__cxx1112basic_stringIcSt11char_traitsIcESaIcEEEENS0_21default_call_policiesENS_3mpl7vector3IiRS6_SE_EEEEE9min_arityEv@Base 2.4.5
 (optional=templinst)_ZNK5boost6python7objects23caller_py_function_implINS0_6detail6callerIMN15CalamaresPython26GlobalStoragePythonWrapperEFiRKNSt7__cxx1112basic_stringIcSt11char_traitsIcESaIcEEEENS0_21default_call_policiesENS_3mpl7vector3IiRS6_SE_EEEEE9signatureEv@Base 2.4.5
 (optional=templinst)_ZNK5boost6python7objects23caller_py_function_implINS0_6detail6callerIMN15CalamaresPython26GlobalStoragePythonWrapperEFvRKNSt7__cxx1112basic_stringIcSt11char_traitsIcESaIcEEERKNS0_3api6objectEENS0_21default_call_policiesENS_3mpl7vector4IvRS6_SE_SI_EEEEE9min_arityEv@Base 2.4.5
 (optional=templinst)_ZNK5boost6python7objects23caller_py_function_implINS0_6detail6callerIMN15CalamaresPython26GlobalStoragePythonWrapperEFvRKNSt7__cxx1112basic_stringIcSt11char_traitsIcESaIcEEERKNS0_3api6objectEENS0_21default_call_policiesENS_3mpl7vector4IvRS6_SE_SI_EEEEE9signatureEv@Base 2.4.5
 (optional=templinst)_ZNK5boost6python7objects23caller_py_function_implINS0_6detail6callerIMN15CalamaresPython26GlobalStoragePythonWrapperEKFNS0_3api6objectERKNSt7__cxx1112basic_stringIcSt11char_traitsIcESaIcEEEENS0_21default_call_policiesENS_3mpl7vector3IS8_RS6_SG_EEEEE9min_arityEv@Base 2.4.5
 (optional=templinst)_ZNK5boost6python7objects23caller_py_function_implINS0_6detail6callerIMN15CalamaresPython26GlobalStoragePythonWrapperEKFNS0_3api6objectERKNSt7__cxx1112basic_stringIcSt11char_traitsIcESaIcEEEENS0_21default_call_policiesENS_3mpl7vector3IS8_RS6_SG_EEEEE9signatureEv@Base 2.4.5
 (optional=templinst)_ZNK5boost6python7objects23caller_py_function_implINS0_6detail6callerIMN15CalamaresPython26GlobalStoragePythonWrapperEKFNS0_4listEvENS0_21default_call_policiesENS_3mpl7vector2IS7_RS6_EEEEE9min_arityEv@Base 2.4.5
 (optional=templinst)_ZNK5boost6python7objects23caller_py_function_implINS0_6detail6callerIMN15CalamaresPython26GlobalStoragePythonWrapperEKFNS0_4listEvENS0_21default_call_policiesENS_3mpl7vector2IS7_RS6_EEEEE9signatureEv@Base 2.4.5
 (optional=templinst)_ZNK5boost6python7objects23caller_py_function_implINS0_6detail6callerIMN15CalamaresPython26GlobalStoragePythonWrapperEKFbRKNSt7__cxx1112basic_stringIcSt11char_traitsIcESaIcEEEENS0_21default_call_policiesENS_3mpl7vector3IbRS6_SE_EEEEE9min_arityEv@Base 2.4.5
 (optional=templinst)_ZNK5boost6python7objects23caller_py_function_implINS0_6detail6callerIMN15CalamaresPython26GlobalStoragePythonWrapperEKFbRKNSt7__cxx1112basic_stringIcSt11char_traitsIcESaIcEEEENS0_21default_call_policiesENS_3mpl7vector3IbRS6_SE_EEEEE9signatureEv@Base 2.4.5
 (optional=templinst)_ZNK5boost6python7objects23caller_py_function_implINS0_6detail6callerIMN15CalamaresPython26GlobalStoragePythonWrapperEKFivENS0_21default_call_policiesENS_3mpl7vector2IiRS6_EEEEE9min_arityEv@Base 2.4.5
 (optional=templinst)_ZNK5boost6python7objects23caller_py_function_implINS0_6detail6callerIMN15CalamaresPython26GlobalStoragePythonWrapperEKFivENS0_21default_call_policiesENS_3mpl7vector2IiRS6_EEEEE9signatureEv@Base 2.4.5
 (optional=templinst)_ZNK5boost6python7objects23caller_py_function_implINS0_6detail6callerINS3_6memberINS0_4dictEN15CalamaresPython18PythonJobInterfaceEEENS0_19return_value_policyINS0_15return_by_valueENS0_21default_call_policiesEEENS_3mpl7vector2IRS6_RS8_EEEEE9min_arityEv@Base 2.4.5
 (optional=templinst)_ZNK5boost6python7objects23caller_py_function_implINS0_6detail6callerINS3_6memberINS0_4dictEN15CalamaresPython18PythonJobInterfaceEEENS0_19return_value_policyINS0_15return_by_valueENS0_21default_call_policiesEEENS_3mpl7vector2IRS6_RS8_EEEEE9signatureEv@Base 2.4.5
 (optional=templinst)_ZNK5boost6python7objects23caller_py_function_implINS0_6detail6callerINS3_6memberINSt7__cxx1112basic_stringIcSt11char_traitsIcESaIcEEEN15CalamaresPython18PythonJobInterfaceEEENS0_19return_value_policyINS0_15return_by_valueENS0_21default_call_policiesEEENS_3mpl7vector2IRSB_RSD_EEEEE9min_arityEv@Base 2.4.5
 (optional=templinst)_ZNK5boost6python7objects23caller_py_function_implINS0_6detail6callerINS3_6memberINSt7__cxx1112basic_stringIcSt11char_traitsIcESaIcEEEN15CalamaresPython18PythonJobInterfaceEEENS0_19return_value_policyINS0_15return_by_valueENS0_21default_call_policiesEEENS_3mpl7vector2IRSB_RSD_EEEEE9signatureEv@Base 2.4.5
 (optional=templinst)_ZNK5boost6python7objects23caller_py_function_implINS0_6detail6callerIPFNSt7__cxx1112basic_stringIcSt11char_traitsIcESaIcEEERKNS0_4listEENS0_21default_call_policiesENS_3mpl7vector2ISA_SD_EEEEE9min_arityEv@Base 2.4.5
 (optional=templinst)_ZNK5boost6python7objects23caller_py_function_implINS0_6detail6callerIPFNSt7__cxx1112basic_stringIcSt11char_traitsIcESaIcEEERKNS0_4listEENS0_21default_call_policiesENS_3mpl7vector2ISA_SD_EEEEE9signatureEv@Base 2.4.5
 (optional=templinst)_ZNK5boost6python7objects23caller_py_function_implINS0_6detail6callerIPFNSt7__cxx1112basic_stringIcSt11char_traitsIcESaIcEEERKNS0_4listERKSA_ENS0_21default_call_policiesENS_3mpl7vector3ISA_SD_SF_EEEEE9min_arityEv@Base 2.4.5
 (optional=templinst)_ZNK5boost6python7objects23caller_py_function_implINS0_6detail6callerIPFNSt7__cxx1112basic_stringIcSt11char_traitsIcESaIcEEERKNS0_4listERKSA_ENS0_21default_call_policiesENS_3mpl7vector3ISA_SD_SF_EEEEE9signatureEv@Base 2.4.5
 (optional=templinst)_ZNK5boost6python7objects23caller_py_function_implINS0_6detail6callerIPFNSt7__cxx1112basic_stringIcSt11char_traitsIcESaIcEEERKNS0_4listERKSA_iENS0_21default_call_policiesENS_3mpl7vector4ISA_SD_SF_iEEEEE9min_arityEv@Base 2.4.5
 (optional=templinst)_ZNK5boost6python7objects23caller_py_function_implINS0_6detail6callerIPFNSt7__cxx1112basic_stringIcSt11char_traitsIcESaIcEEERKNS0_4listERKSA_iENS0_21default_call_policiesENS_3mpl7vector4ISA_SD_SF_iEEEEE9signatureEv@Base 2.4.5
 (optional=templinst)_ZNK5boost6python7objects23caller_py_function_implINS0_6detail6callerIPFNSt7__cxx1112basic_stringIcSt11char_traitsIcESaIcEEERKSA_ENS0_21default_call_policiesENS_3mpl7vector2ISA_SC_EEEEE9min_arityEv@Base 2.4.5
 (optional=templinst)_ZNK5boost6python7objects23caller_py_function_implINS0_6detail6callerIPFNSt7__cxx1112basic_stringIcSt11char_traitsIcESaIcEEERKSA_ENS0_21default_call_policiesENS_3mpl7vector2ISA_SC_EEEEE9signatureEv@Base 2.4.5
 (optional=templinst)_ZNK5boost6python7objects23caller_py_function_implINS0_6detail6callerIPFNSt7__cxx1112basic_stringIcSt11char_traitsIcESaIcEEERKSA_SC_ENS0_21default_call_policiesENS_3mpl7vector3ISA_SC_SC_EEEEE9min_arityEv@Base 2.4.5
 (optional=templinst)_ZNK5boost6python7objects23caller_py_function_implINS0_6detail6callerIPFNSt7__cxx1112basic_stringIcSt11char_traitsIcESaIcEEERKSA_SC_ENS0_21default_call_policiesENS_3mpl7vector3ISA_SC_SC_EEEEE9signatureEv@Base 2.4.5
 (optional=templinst)_ZNK5boost6python7objects23caller_py_function_implINS0_6detail6callerIPFNSt7__cxx1112basic_stringIcSt11char_traitsIcESaIcEEERKSA_SC_iENS0_21default_call_policiesENS_3mpl7vector4ISA_SC_SC_iEEEEE9min_arityEv@Base 2.4.5
 (optional=templinst)_ZNK5boost6python7objects23caller_py_function_implINS0_6detail6callerIPFNSt7__cxx1112basic_stringIcSt11char_traitsIcESaIcEEERKSA_SC_iENS0_21default_call_policiesENS_3mpl7vector4ISA_SC_SC_iEEEEE9signatureEv@Base 2.4.5
 (optional=templinst)_ZNK5boost6python7objects23caller_py_function_implINS0_6detail6callerIPFiRKNS0_4listEENS0_21default_call_policiesENS_3mpl7vector2IiS7_EEEEE9min_arityEv@Base 2.4.5
 (optional=templinst)_ZNK5boost6python7objects23caller_py_function_implINS0_6detail6callerIPFiRKNS0_4listEENS0_21default_call_policiesENS_3mpl7vector2IiS7_EEEEE9signatureEv@Base 2.4.5
 (optional=templinst)_ZNK5boost6python7objects23caller_py_function_implINS0_6detail6callerIPFiRKNS0_4listERKNSt7__cxx1112basic_stringIcSt11char_traitsIcESaIcEEEENS0_21default_call_policiesENS_3mpl7vector3IiS7_SF_EEEEE9min_arityEv@Base 2.4.5
 (optional=templinst)_ZNK5boost6python7objects23caller_py_function_implINS0_6detail6callerIPFiRKNS0_4listERKNSt7__cxx1112basic_stringIcSt11char_traitsIcESaIcEEEENS0_21default_call_policiesENS_3mpl7vector3IiS7_SF_EEEEE9signatureEv@Base 2.4.5
 (optional=templinst)_ZNK5boost6python7objects23caller_py_function_implINS0_6detail6callerIPFiRKNS0_4listERKNSt7__cxx1112basic_stringIcSt11char_traitsIcESaIcEEEiENS0_21default_call_policiesENS_3mpl7vector4IiS7_SF_iEEEEE9min_arityEv@Base 2.4.5
 (optional=templinst)_ZNK5boost6python7objects23caller_py_function_implINS0_6detail6callerIPFiRKNS0_4listERKNSt7__cxx1112basic_stringIcSt11char_traitsIcESaIcEEEiENS0_21default_call_policiesENS_3mpl7vector4IiS7_SF_iEEEEE9signatureEv@Base 2.4.5
 (optional=templinst)_ZNK5boost6python7objects23caller_py_function_implINS0_6detail6callerIPFiRKNSt7__cxx1112basic_stringIcSt11char_traitsIcESaIcEEEENS0_21default_call_policiesENS_3mpl7vector2IiSC_EEEEE9min_arityEv@Base 2.4.5
 (optional=templinst)_ZNK5boost6python7objects23caller_py_function_implINS0_6detail6callerIPFiRKNSt7__cxx1112basic_stringIcSt11char_traitsIcESaIcEEEENS0_21default_call_policiesENS_3mpl7vector2IiSC_EEEEE9signatureEv@Base 2.4.5
 (optional=templinst)_ZNK5boost6python7objects23caller_py_function_implINS0_6detail6callerIPFiRKNSt7__cxx1112basic_stringIcSt11char_traitsIcESaIcEEESC_ENS0_21default_call_policiesENS_3mpl7vector3IiSC_SC_EEEEE9min_arityEv@Base 2.4.5
 (optional=templinst)_ZNK5boost6python7objects23caller_py_function_implINS0_6detail6callerIPFiRKNSt7__cxx1112basic_stringIcSt11char_traitsIcESaIcEEESC_ENS0_21default_call_policiesENS_3mpl7vector3IiSC_SC_EEEEE9signatureEv@Base 2.4.5
 (optional=templinst)_ZNK5boost6python7objects23caller_py_function_implINS0_6detail6callerIPFiRKNSt7__cxx1112basic_stringIcSt11char_traitsIcESaIcEEESC_SC_ENS0_21default_call_policiesENS_3mpl7vector4IiSC_SC_SC_EEEEE9min_arityEv@Base 2.4.5
 (optional=templinst)_ZNK5boost6python7objects23caller_py_function_implINS0_6detail6callerIPFiRKNSt7__cxx1112basic_stringIcSt11char_traitsIcESaIcEEESC_SC_ENS0_21default_call_policiesENS_3mpl7vector4IiSC_SC_SC_EEEEE9signatureEv@Base 2.4.5
 (optional=templinst)_ZNK5boost6python7objects23caller_py_function_implINS0_6detail6callerIPFiRKNSt7__cxx1112basic_stringIcSt11char_traitsIcESaIcEEESC_SC_SC_ENS0_21default_call_policiesENS_3mpl7vector5IiSC_SC_SC_SC_EEEEE9min_arityEv@Base 2.4.5
 (optional=templinst)_ZNK5boost6python7objects23caller_py_function_implINS0_6detail6callerIPFiRKNSt7__cxx1112basic_stringIcSt11char_traitsIcESaIcEEESC_SC_SC_ENS0_21default_call_policiesENS_3mpl7vector5IiSC_SC_SC_SC_EEEEE9signatureEv@Base 2.4.5
 (optional=templinst)_ZNK5boost6python7objects23caller_py_function_implINS0_6detail6callerIPFiRKNSt7__cxx1112basic_stringIcSt11char_traitsIcESaIcEEESC_iENS0_21default_call_policiesENS_3mpl7vector4IiSC_SC_iEEEEE9min_arityEv@Base 2.4.5
 (optional=templinst)_ZNK5boost6python7objects23caller_py_function_implINS0_6detail6callerIPFiRKNSt7__cxx1112basic_stringIcSt11char_traitsIcESaIcEEESC_iENS0_21default_call_policiesENS_3mpl7vector4IiSC_SC_iEEEEE9signatureEv@Base 2.4.5
 (optional=templinst)_ZNK5boost6python7objects23caller_py_function_implINS0_6detail6callerIPFvP7_objectPN9Calamares13GlobalStorageEENS0_21default_call_policiesENS_3mpl7vector3IvS6_S9_EEEEE9min_arityEv@Base 2.4.5
 (optional=templinst)_ZNK5boost6python7objects23caller_py_function_implINS0_6detail6callerIPFvP7_objectPN9Calamares13GlobalStorageEENS0_21default_call_policiesENS_3mpl7vector3IvS6_S9_EEEEE9signatureEv@Base 2.4.5
 (optional=templinst)_ZNK5boost6python7objects23caller_py_function_implINS0_6detail6callerIPFvP7_objectPN9Calamares9PythonJobEENS0_21default_call_policiesENS_3mpl7vector3IvS6_S9_EEEEE9min_arityEv@Base 2.4.5
 (optional=templinst)_ZNK5boost6python7objects23caller_py_function_implINS0_6detail6callerIPFvP7_objectPN9Calamares9PythonJobEENS0_21default_call_policiesENS_3mpl7vector3IvS6_S9_EEEEE9signatureEv@Base 2.4.5
 (optional=templinst)_ZNK5boost6python7objects23caller_py_function_implINS0_6detail6callerIPFvRKNSt7__cxx1112basic_stringIcSt11char_traitsIcESaIcEEEENS0_21default_call_policiesENS_3mpl7vector2IvSC_EEEEE9min_arityEv@Base 2.4.5
 (optional=templinst)_ZNK5boost6python7objects23caller_py_function_implINS0_6detail6callerIPFvRKNSt7__cxx1112basic_stringIcSt11char_traitsIcESaIcEEEENS0_21default_call_policiesENS_3mpl7vector2IvSC_EEEEE9signatureEv@Base 2.4.5
 _ZNK7kdtools31KDLockedSharedMemoryPointerBase3getEv@Base 2.4.5
 _ZNK7kdtools31KDLockedSharedMemoryPointerBase8byteSizeEv@Base 2.4.5
 (optional=templinst)_ZNK8QMapDataI7QString8QVariantE8findNodeERKS0_@Base 2.4.5
 (optional=templinst)_ZNK8QMapNodeI7QString8QVariantE4copyEP8QMapDataIS0_S1_E@Base 2.4.5
 _ZNK9Calamares10ProcessJob10metaObjectEv@Base 2.4.5
 _ZNK9Calamares10ProcessJob10prettyNameEv@Base 2.4.5
 _ZNK9Calamares10ProcessJob19prettyStatusMessageEv@Base 2.4.5
 _ZNK9Calamares13GlobalStorage10metaObjectEv@Base 2.4.5
 _ZNK9Calamares13GlobalStorage4keysEv@Base 2.4.5
 _ZNK9Calamares13GlobalStorage5countEv@Base 2.4.5
 _ZNK9Calamares13GlobalStorage5valueERK7QString@Base 2.4.5
 _ZNK9Calamares13GlobalStorage8containsERK7QString@Base 2.4.5
 _ZNK9Calamares13PluginFactory10metaObjectEv@Base 2.4.5
 _ZNK9Calamares3Job10metaObjectEv@Base 2.4.5
 _ZNK9Calamares3Job17prettyDescriptionEv@Base 2.4.5
 _ZNK9Calamares3Job19prettyStatusMessageEv@Base 2.4.5
 _ZNK9Calamares6CppJob10metaObjectEv@Base 2.4.5
 _ZNK9Calamares8JobQueue10metaObjectEv@Base 2.4.5
 _ZNK9Calamares8JobQueue13globalStorageEv@Base 2.4.5
 _ZNK9Calamares9JobResult7detailsEv@Base 2.4.5
 _ZNK9Calamares9JobResult7messageEv@Base 2.4.5
 _ZNK9Calamares9JobResultcvbEv@Base 2.4.5
 _ZNK9Calamares9JobThread10metaObjectEv@Base 2.4.5
 _ZNK9Calamares9PythonJob10metaObjectEv@Base 2.4.5
 _ZNK9Calamares9PythonJob10prettyNameEv@Base 2.4.5
 _ZNK9Calamares9PythonJob19prettyStatusMessageEv@Base 2.4.5
 (optional=templinst)_ZNKSt5ctypeIcE8do_widenEc@Base 2.4.5
 (optional=templinst)_ZNSt8functionIFvvEEC1ERKS1_@Base 2.4.5
 (optional=templinst)_ZNSt8functionIFvvEEC2ERKS1_@Base 2.4.5
 (optional=templinst)_ZSt9__find_ifIP11ProcessInfoN9__gnu_cxx5__ops16_Iter_equals_valIKS0_EEET_S7_S7_T0_St26random_access_iterator_tag@Base 2.4.5
 _ZTI24KDSingleApplicationGuard@Base 2.4.5
 _ZTI6QDebug@Base 2.4.5
 _ZTIFvvE@Base 2.4.5
 _ZTIN14CalamaresUtils12RetranslatorE@Base 2.4.5
 _ZTIN14CalamaresUtils6SystemE@Base 2.4.5
 _ZTIN15CalamaresPython6HelperE@Base 2.4.5
 _ZTIN5boost6detail15sp_counted_baseE@Base 2.4.5
 _ZTIN5boost6detail18sp_counted_impl_pdIPvNS_6python9converter18shared_ptr_deleterEEE@Base 2.4.5
 _ZTIN5boost6python7objects12value_holderIN15CalamaresPython18PythonJobInterfaceEEE@Base 2.4.5
 _ZTIN5boost6python7objects12value_holderIN15CalamaresPython26GlobalStoragePythonWrapperEEE@Base 2.4.5
 _ZTIN5boost6python7objects23caller_py_function_implINS0_6detail6callerIMN15CalamaresPython18PythonJobInterfaceEFvdENS0_21default_call_policiesENS_3mpl7vector3IvRS6_dEEEEEE@Base 2.4.5
 _ZTIN5boost6python7objects23caller_py_function_implINS0_6detail6callerIMN15CalamaresPython26GlobalStoragePythonWrapperEFiRKNSt7__cxx1112basic_stringIcSt11char_traitsIcESaIcEEEENS0_21default_call_policiesENS_3mpl7vector3IiRS6_SE_EEEEEE@Base 2.4.5
 _ZTIN5boost6python7objects23caller_py_function_implINS0_6detail6callerIMN15CalamaresPython26GlobalStoragePythonWrapperEFvRKNSt7__cxx1112basic_stringIcSt11char_traitsIcESaIcEEERKNS0_3api6objectEENS0_21default_call_policiesENS_3mpl7vector4IvRS6_SE_SI_EEEEEE@Base 2.4.5
 _ZTIN5boost6python7objects23caller_py_function_implINS0_6detail6callerIMN15CalamaresPython26GlobalStoragePythonWrapperEKFNS0_3api6objectERKNSt7__cxx1112basic_stringIcSt11char_traitsIcESaIcEEEENS0_21default_call_policiesENS_3mpl7vector3IS8_RS6_SG_EEEEEE@Base 2.4.5
 _ZTIN5boost6python7objects23caller_py_function_implINS0_6detail6callerIMN15CalamaresPython26GlobalStoragePythonWrapperEKFNS0_4listEvENS0_21default_call_policiesENS_3mpl7vector2IS7_RS6_EEEEEE@Base 2.4.5
 _ZTIN5boost6python7objects23caller_py_function_implINS0_6detail6callerIMN15CalamaresPython26GlobalStoragePythonWrapperEKFbRKNSt7__cxx1112basic_stringIcSt11char_traitsIcESaIcEEEENS0_21default_call_policiesENS_3mpl7vector3IbRS6_SE_EEEEEE@Base 2.4.5
 _ZTIN5boost6python7objects23caller_py_function_implINS0_6detail6callerIMN15CalamaresPython26GlobalStoragePythonWrapperEKFivENS0_21default_call_policiesENS_3mpl7vector2IiRS6_EEEEEE@Base 2.4.5
 _ZTIN5boost6python7objects23caller_py_function_implINS0_6detail6callerINS3_6memberINS0_4dictEN15CalamaresPython18PythonJobInterfaceEEENS0_19return_value_policyINS0_15return_by_valueENS0_21default_call_policiesEEENS_3mpl7vector2IRS6_RS8_EEEEEE@Base 2.4.5
 _ZTIN5boost6python7objects23caller_py_function_implINS0_6detail6callerINS3_6memberINSt7__cxx1112basic_stringIcSt11char_traitsIcESaIcEEEN15CalamaresPython18PythonJobInterfaceEEENS0_19return_value_policyINS0_15return_by_valueENS0_21default_call_policiesEEENS_3mpl7vector2IRSB_RSD_EEEEEE@Base 2.4.5
 _ZTIN5boost6python7objects23caller_py_function_implINS0_6detail6callerIPFNSt7__cxx1112basic_stringIcSt11char_traitsIcESaIcEEERKNS0_4listEENS0_21default_call_policiesENS_3mpl7vector2ISA_SD_EEEEEE@Base 2.4.5
 _ZTIN5boost6python7objects23caller_py_function_implINS0_6detail6callerIPFNSt7__cxx1112basic_stringIcSt11char_traitsIcESaIcEEERKNS0_4listERKSA_ENS0_21default_call_policiesENS_3mpl7vector3ISA_SD_SF_EEEEEE@Base 2.4.5
 _ZTIN5boost6python7objects23caller_py_function_implINS0_6detail6callerIPFNSt7__cxx1112basic_stringIcSt11char_traitsIcESaIcEEERKNS0_4listERKSA_iENS0_21default_call_policiesENS_3mpl7vector4ISA_SD_SF_iEEEEEE@Base 2.4.5
 _ZTIN5boost6python7objects23caller_py_function_implINS0_6detail6callerIPFNSt7__cxx1112basic_stringIcSt11char_traitsIcESaIcEEERKSA_ENS0_21default_call_policiesENS_3mpl7vector2ISA_SC_EEEEEE@Base 2.4.5
 _ZTIN5boost6python7objects23caller_py_function_implINS0_6detail6callerIPFNSt7__cxx1112basic_stringIcSt11char_traitsIcESaIcEEERKSA_SC_ENS0_21default_call_policiesENS_3mpl7vector3ISA_SC_SC_EEEEEE@Base 2.4.5
 _ZTIN5boost6python7objects23caller_py_function_implINS0_6detail6callerIPFNSt7__cxx1112basic_stringIcSt11char_traitsIcESaIcEEERKSA_SC_iENS0_21default_call_policiesENS_3mpl7vector4ISA_SC_SC_iEEEEEE@Base 2.4.5
 _ZTIN5boost6python7objects23caller_py_function_implINS0_6detail6callerIPFiRKNS0_4listEENS0_21default_call_policiesENS_3mpl7vector2IiS7_EEEEEE@Base 2.4.5
 _ZTIN5boost6python7objects23caller_py_function_implINS0_6detail6callerIPFiRKNS0_4listERKNSt7__cxx1112basic_stringIcSt11char_traitsIcESaIcEEEENS0_21default_call_policiesENS_3mpl7vector3IiS7_SF_EEEEEE@Base 2.4.5
 _ZTIN5boost6python7objects23caller_py_function_implINS0_6detail6callerIPFiRKNS0_4listERKNSt7__cxx1112basic_stringIcSt11char_traitsIcESaIcEEEiENS0_21default_call_policiesENS_3mpl7vector4IiS7_SF_iEEEEEE@Base 2.4.5
 _ZTIN5boost6python7objects23caller_py_function_implINS0_6detail6callerIPFiRKNSt7__cxx1112basic_stringIcSt11char_traitsIcESaIcEEEENS0_21default_call_policiesENS_3mpl7vector2IiSC_EEEEEE@Base 2.4.5
 _ZTIN5boost6python7objects23caller_py_function_implINS0_6detail6callerIPFiRKNSt7__cxx1112basic_stringIcSt11char_traitsIcESaIcEEESC_ENS0_21default_call_policiesENS_3mpl7vector3IiSC_SC_EEEEEE@Base 2.4.5
 _ZTIN5boost6python7objects23caller_py_function_implINS0_6detail6callerIPFiRKNSt7__cxx1112basic_stringIcSt11char_traitsIcESaIcEEESC_SC_ENS0_21default_call_policiesENS_3mpl7vector4IiSC_SC_SC_EEEEEE@Base 2.4.5
 _ZTIN5boost6python7objects23caller_py_function_implINS0_6detail6callerIPFiRKNSt7__cxx1112basic_stringIcSt11char_traitsIcESaIcEEESC_SC_SC_ENS0_21default_call_policiesENS_3mpl7vector5IiSC_SC_SC_SC_EEEEEE@Base 2.4.5
 _ZTIN5boost6python7objects23caller_py_function_implINS0_6detail6callerIPFiRKNSt7__cxx1112basic_stringIcSt11char_traitsIcESaIcEEESC_iENS0_21default_call_policiesENS_3mpl7vector4IiSC_SC_iEEEEEE@Base 2.4.5
 _ZTIN5boost6python7objects23caller_py_function_implINS0_6detail6callerIPFvP7_objectPN9Calamares13GlobalStorageEENS0_21default_call_policiesENS_3mpl7vector3IvS6_S9_EEEEEE@Base 2.4.5
 _ZTIN5boost6python7objects23caller_py_function_implINS0_6detail6callerIPFvP7_objectPN9Calamares9PythonJobEENS0_21default_call_policiesENS_3mpl7vector3IvS6_S9_EEEEEE@Base 2.4.5
 _ZTIN5boost6python7objects23caller_py_function_implINS0_6detail6callerIPFvRKNSt7__cxx1112basic_stringIcSt11char_traitsIcESaIcEEEENS0_21default_call_policiesENS_3mpl7vector2IvSC_EEEEEE@Base 2.4.5
 _ZTIN6Logger4CLogE@Base 2.4.5
 _ZTIN6Logger6CDebugE@Base 2.4.5
 _ZTIN9Calamares10ProcessJobE@Base 2.4.5
 _ZTIN9Calamares13GlobalStorageE@Base 2.4.5
 _ZTIN9Calamares13PluginFactoryE@Base 2.4.5
 _ZTIN9Calamares3JobE@Base 2.4.5
 _ZTIN9Calamares6CppJobE@Base 2.4.5
 _ZTIN9Calamares8JobQueueE@Base 2.4.5
 _ZTIN9Calamares9JobThreadE@Base 2.4.5
 _ZTIN9Calamares9PythonJobE@Base 2.4.5
 _ZTIPFvvE@Base 2.4.5
 _ZTS24KDSingleApplicationGuard@Base 2.4.5
 _ZTS6QDebug@Base 2.4.5
 _ZTS7_object@Base 2.4.5
 _ZTSFvvE@Base 2.4.5
 _ZTSN14CalamaresUtils12RetranslatorE@Base 2.4.5
 _ZTSN14CalamaresUtils6SystemE@Base 2.4.5
 _ZTSN15CalamaresPython18PythonJobInterfaceE@Base 2.4.5
 _ZTSN15CalamaresPython26GlobalStoragePythonWrapperE@Base 2.4.5
 _ZTSN15CalamaresPython6HelperE@Base 2.4.5
 _ZTSN5boost10shared_ptrIN15CalamaresPython18PythonJobInterfaceEEE@Base 2.4.5
 _ZTSN5boost10shared_ptrIN15CalamaresPython26GlobalStoragePythonWrapperEEE@Base 2.4.5
 _ZTSN5boost6detail15sp_counted_baseE@Base 2.4.5
 _ZTSN5boost6detail18sp_counted_impl_pdIPvNS_6python9converter18shared_ptr_deleterEEE@Base 2.4.5
 _ZTSN5boost6python3api6objectE@Base 2.4.5
 _ZTSN5boost6python4dictE@Base 2.4.5
 _ZTSN5boost6python4listE@Base 2.4.5
 _ZTSN5boost6python7objects12value_holderIN15CalamaresPython18PythonJobInterfaceEEE@Base 2.4.5
 _ZTSN5boost6python7objects12value_holderIN15CalamaresPython26GlobalStoragePythonWrapperEEE@Base 2.4.5
 _ZTSN5boost6python7objects23caller_py_function_implINS0_6detail6callerIMN15CalamaresPython18PythonJobInterfaceEFvdENS0_21default_call_policiesENS_3mpl7vector3IvRS6_dEEEEEE@Base 2.4.5
 _ZTSN5boost6python7objects23caller_py_function_implINS0_6detail6callerIMN15CalamaresPython26GlobalStoragePythonWrapperEFiRKNSt7__cxx1112basic_stringIcSt11char_traitsIcESaIcEEEENS0_21default_call_policiesENS_3mpl7vector3IiRS6_SE_EEEEEE@Base 2.4.5
 _ZTSN5boost6python7objects23caller_py_function_implINS0_6detail6callerIMN15CalamaresPython26GlobalStoragePythonWrapperEFvRKNSt7__cxx1112basic_stringIcSt11char_traitsIcESaIcEEERKNS0_3api6objectEENS0_21default_call_policiesENS_3mpl7vector4IvRS6_SE_SI_EEEEEE@Base 2.4.5
 _ZTSN5boost6python7objects23caller_py_function_implINS0_6detail6callerIMN15CalamaresPython26GlobalStoragePythonWrapperEKFNS0_3api6objectERKNSt7__cxx1112basic_stringIcSt11char_traitsIcESaIcEEEENS0_21default_call_policiesENS_3mpl7vector3IS8_RS6_SG_EEEEEE@Base 2.4.5
 _ZTSN5boost6python7objects23caller_py_function_implINS0_6detail6callerIMN15CalamaresPython26GlobalStoragePythonWrapperEKFNS0_4listEvENS0_21default_call_policiesENS_3mpl7vector2IS7_RS6_EEEEEE@Base 2.4.5
 _ZTSN5boost6python7objects23caller_py_function_implINS0_6detail6callerIMN15CalamaresPython26GlobalStoragePythonWrapperEKFbRKNSt7__cxx1112basic_stringIcSt11char_traitsIcESaIcEEEENS0_21default_call_policiesENS_3mpl7vector3IbRS6_SE_EEEEEE@Base 2.4.5
 _ZTSN5boost6python7objects23caller_py_function_implINS0_6detail6callerIMN15CalamaresPython26GlobalStoragePythonWrapperEKFivENS0_21default_call_policiesENS_3mpl7vector2IiRS6_EEEEEE@Base 2.4.5
 _ZTSN5boost6python7objects23caller_py_function_implINS0_6detail6callerINS3_6memberINS0_4dictEN15CalamaresPython18PythonJobInterfaceEEENS0_19return_value_policyINS0_15return_by_valueENS0_21default_call_policiesEEENS_3mpl7vector2IRS6_RS8_EEEEEE@Base 2.4.5
 _ZTSN5boost6python7objects23caller_py_function_implINS0_6detail6callerINS3_6memberINSt7__cxx1112basic_stringIcSt11char_traitsIcESaIcEEEN15CalamaresPython18PythonJobInterfaceEEENS0_19return_value_policyINS0_15return_by_valueENS0_21default_call_policiesEEENS_3mpl7vector2IRSB_RSD_EEEEEE@Base 2.4.5
 _ZTSN5boost6python7objects23caller_py_function_implINS0_6detail6callerIPFNSt7__cxx1112basic_stringIcSt11char_traitsIcESaIcEEERKNS0_4listEENS0_21default_call_policiesENS_3mpl7vector2ISA_SD_EEEEEE@Base 2.4.5
 _ZTSN5boost6python7objects23caller_py_function_implINS0_6detail6callerIPFNSt7__cxx1112basic_stringIcSt11char_traitsIcESaIcEEERKNS0_4listERKSA_ENS0_21default_call_policiesENS_3mpl7vector3ISA_SD_SF_EEEEEE@Base 2.4.5
 _ZTSN5boost6python7objects23caller_py_function_implINS0_6detail6callerIPFNSt7__cxx1112basic_stringIcSt11char_traitsIcESaIcEEERKNS0_4listERKSA_iENS0_21default_call_policiesENS_3mpl7vector4ISA_SD_SF_iEEEEEE@Base 2.4.5
 _ZTSN5boost6python7objects23caller_py_function_implINS0_6detail6callerIPFNSt7__cxx1112basic_stringIcSt11char_traitsIcESaIcEEERKSA_ENS0_21default_call_policiesENS_3mpl7vector2ISA_SC_EEEEEE@Base 2.4.5
 _ZTSN5boost6python7objects23caller_py_function_implINS0_6detail6callerIPFNSt7__cxx1112basic_stringIcSt11char_traitsIcESaIcEEERKSA_SC_ENS0_21default_call_policiesENS_3mpl7vector3ISA_SC_SC_EEEEEE@Base 2.4.5
 _ZTSN5boost6python7objects23caller_py_function_implINS0_6detail6callerIPFNSt7__cxx1112basic_stringIcSt11char_traitsIcESaIcEEERKSA_SC_iENS0_21default_call_policiesENS_3mpl7vector4ISA_SC_SC_iEEEEEE@Base 2.4.5
 _ZTSN5boost6python7objects23caller_py_function_implINS0_6detail6callerIPFiRKNS0_4listEENS0_21default_call_policiesENS_3mpl7vector2IiS7_EEEEEE@Base 2.4.5
 _ZTSN5boost6python7objects23caller_py_function_implINS0_6detail6callerIPFiRKNS0_4listERKNSt7__cxx1112basic_stringIcSt11char_traitsIcESaIcEEEENS0_21default_call_policiesENS_3mpl7vector3IiS7_SF_EEEEEE@Base 2.4.5
 _ZTSN5boost6python7objects23caller_py_function_implINS0_6detail6callerIPFiRKNS0_4listERKNSt7__cxx1112basic_stringIcSt11char_traitsIcESaIcEEEiENS0_21default_call_policiesENS_3mpl7vector4IiS7_SF_iEEEEEE@Base 2.4.5
 _ZTSN5boost6python7objects23caller_py_function_implINS0_6detail6callerIPFiRKNSt7__cxx1112basic_stringIcSt11char_traitsIcESaIcEEEENS0_21default_call_policiesENS_3mpl7vector2IiSC_EEEEEE@Base 2.4.5
 _ZTSN5boost6python7objects23caller_py_function_implINS0_6detail6callerIPFiRKNSt7__cxx1112basic_stringIcSt11char_traitsIcESaIcEEESC_ENS0_21default_call_policiesENS_3mpl7vector3IiSC_SC_EEEEEE@Base 2.4.5
 _ZTSN5boost6python7objects23caller_py_function_implINS0_6detail6callerIPFiRKNSt7__cxx1112basic_stringIcSt11char_traitsIcESaIcEEESC_SC_ENS0_21default_call_policiesENS_3mpl7vector4IiSC_SC_SC_EEEEEE@Base 2.4.5
 _ZTSN5boost6python7objects23caller_py_function_implINS0_6detail6callerIPFiRKNSt7__cxx1112basic_stringIcSt11char_traitsIcESaIcEEESC_SC_SC_ENS0_21default_call_policiesENS_3mpl7vector5IiSC_SC_SC_SC_EEEEEE@Base 2.4.5
 _ZTSN5boost6python7objects23caller_py_function_implINS0_6detail6callerIPFiRKNSt7__cxx1112basic_stringIcSt11char_traitsIcESaIcEEESC_iENS0_21default_call_policiesENS_3mpl7vector4IiSC_SC_iEEEEEE@Base 2.4.5
 _ZTSN5boost6python7objects23caller_py_function_implINS0_6detail6callerIPFvP7_objectPN9Calamares13GlobalStorageEENS0_21default_call_policiesENS_3mpl7vector3IvS6_S9_EEEEEE@Base 2.4.5
 _ZTSN5boost6python7objects23caller_py_function_implINS0_6detail6callerIPFvP7_objectPN9Calamares9PythonJobEENS0_21default_call_policiesENS_3mpl7vector3IvS6_S9_EEEEEE@Base 2.4.5
 _ZTSN5boost6python7objects23caller_py_function_implINS0_6detail6callerIPFvRKNSt7__cxx1112basic_stringIcSt11char_traitsIcESaIcEEEENS0_21default_call_policiesENS_3mpl7vector2IvSC_EEEEEE@Base 2.4.5
 _ZTSN5boost6python9converter18shared_ptr_deleterE@Base 2.4.5
 _ZTSN6Logger4CLogE@Base 2.4.5
 _ZTSN6Logger6CDebugE@Base 2.4.5
 _ZTSN9Calamares10ProcessJobE@Base 2.4.5
 _ZTSN9Calamares13GlobalStorageE@Base 2.4.5
 _ZTSN9Calamares13PluginFactoryE@Base 2.4.5
 _ZTSN9Calamares3JobE@Base 2.4.5
 _ZTSN9Calamares6CppJobE@Base 2.4.5
 _ZTSN9Calamares8JobQueueE@Base 2.4.5
 _ZTSN9Calamares9JobThreadE@Base 2.4.5
 _ZTSN9Calamares9PythonJobE@Base 2.4.5
 _ZTSNSt7__cxx1112basic_stringIcSt11char_traitsIcESaIcEEE@Base 2.4.5
 _ZTSP7_object@Base 2.4.5
 _ZTSPFvvE@Base 2.4.5
 _ZTSPN9Calamares13GlobalStorageE@Base 2.4.5
 _ZTSPN9Calamares9PythonJobE@Base 2.4.5
 _ZTV24KDSingleApplicationGuard@Base 2.4.5
 _ZTVN14CalamaresUtils12RetranslatorE@Base 2.4.5
 _ZTVN14CalamaresUtils6SystemE@Base 2.4.5
 _ZTVN15CalamaresPython6HelperE@Base 2.4.5
 _ZTVN5boost6detail18sp_counted_impl_pdIPvNS_6python9converter18shared_ptr_deleterEEE@Base 2.4.5
 _ZTVN5boost6python7objects12value_holderIN15CalamaresPython18PythonJobInterfaceEEE@Base 2.4.5
 _ZTVN5boost6python7objects12value_holderIN15CalamaresPython26GlobalStoragePythonWrapperEEE@Base 2.4.5
 _ZTVN5boost6python7objects23caller_py_function_implINS0_6detail6callerIMN15CalamaresPython18PythonJobInterfaceEFvdENS0_21default_call_policiesENS_3mpl7vector3IvRS6_dEEEEEE@Base 2.4.5
 _ZTVN5boost6python7objects23caller_py_function_implINS0_6detail6callerIMN15CalamaresPython26GlobalStoragePythonWrapperEFiRKNSt7__cxx1112basic_stringIcSt11char_traitsIcESaIcEEEENS0_21default_call_policiesENS_3mpl7vector3IiRS6_SE_EEEEEE@Base 2.4.5
 _ZTVN5boost6python7objects23caller_py_function_implINS0_6detail6callerIMN15CalamaresPython26GlobalStoragePythonWrapperEFvRKNSt7__cxx1112basic_stringIcSt11char_traitsIcESaIcEEERKNS0_3api6objectEENS0_21default_call_policiesENS_3mpl7vector4IvRS6_SE_SI_EEEEEE@Base 2.4.5
 _ZTVN5boost6python7objects23caller_py_function_implINS0_6detail6callerIMN15CalamaresPython26GlobalStoragePythonWrapperEKFNS0_3api6objectERKNSt7__cxx1112basic_stringIcSt11char_traitsIcESaIcEEEENS0_21default_call_policiesENS_3mpl7vector3IS8_RS6_SG_EEEEEE@Base 2.4.5
 _ZTVN5boost6python7objects23caller_py_function_implINS0_6detail6callerIMN15CalamaresPython26GlobalStoragePythonWrapperEKFNS0_4listEvENS0_21default_call_policiesENS_3mpl7vector2IS7_RS6_EEEEEE@Base 2.4.5
 _ZTVN5boost6python7objects23caller_py_function_implINS0_6detail6callerIMN15CalamaresPython26GlobalStoragePythonWrapperEKFbRKNSt7__cxx1112basic_stringIcSt11char_traitsIcESaIcEEEENS0_21default_call_policiesENS_3mpl7vector3IbRS6_SE_EEEEEE@Base 2.4.5
 _ZTVN5boost6python7objects23caller_py_function_implINS0_6detail6callerIMN15CalamaresPython26GlobalStoragePythonWrapperEKFivENS0_21default_call_policiesENS_3mpl7vector2IiRS6_EEEEEE@Base 2.4.5
 _ZTVN5boost6python7objects23caller_py_function_implINS0_6detail6callerINS3_6memberINS0_4dictEN15CalamaresPython18PythonJobInterfaceEEENS0_19return_value_policyINS0_15return_by_valueENS0_21default_call_policiesEEENS_3mpl7vector2IRS6_RS8_EEEEEE@Base 2.4.5
 _ZTVN5boost6python7objects23caller_py_function_implINS0_6detail6callerINS3_6memberINSt7__cxx1112basic_stringIcSt11char_traitsIcESaIcEEEN15CalamaresPython18PythonJobInterfaceEEENS0_19return_value_policyINS0_15return_by_valueENS0_21default_call_policiesEEENS_3mpl7vector2IRSB_RSD_EEEEEE@Base 2.4.5
 _ZTVN5boost6python7objects23caller_py_function_implINS0_6detail6callerIPFNSt7__cxx1112basic_stringIcSt11char_traitsIcESaIcEEERKNS0_4listEENS0_21default_call_policiesENS_3mpl7vector2ISA_SD_EEEEEE@Base 2.4.5
 _ZTVN5boost6python7objects23caller_py_function_implINS0_6detail6callerIPFNSt7__cxx1112basic_stringIcSt11char_traitsIcESaIcEEERKNS0_4listERKSA_ENS0_21default_call_policiesENS_3mpl7vector3ISA_SD_SF_EEEEEE@Base 2.4.5
 _ZTVN5boost6python7objects23caller_py_function_implINS0_6detail6callerIPFNSt7__cxx1112basic_stringIcSt11char_traitsIcESaIcEEERKNS0_4listERKSA_iENS0_21default_call_policiesENS_3mpl7vector4ISA_SD_SF_iEEEEEE@Base 2.4.5
 _ZTVN5boost6python7objects23caller_py_function_implINS0_6detail6callerIPFNSt7__cxx1112basic_stringIcSt11char_traitsIcESaIcEEERKSA_ENS0_21default_call_policiesENS_3mpl7vector2ISA_SC_EEEEEE@Base 2.4.5
 _ZTVN5boost6python7objects23caller_py_function_implINS0_6detail6callerIPFNSt7__cxx1112basic_stringIcSt11char_traitsIcESaIcEEERKSA_SC_ENS0_21default_call_policiesENS_3mpl7vector3ISA_SC_SC_EEEEEE@Base 2.4.5
 _ZTVN5boost6python7objects23caller_py_function_implINS0_6detail6callerIPFNSt7__cxx1112basic_stringIcSt11char_traitsIcESaIcEEERKSA_SC_iENS0_21default_call_policiesENS_3mpl7vector4ISA_SC_SC_iEEEEEE@Base 2.4.5
 _ZTVN5boost6python7objects23caller_py_function_implINS0_6detail6callerIPFiRKNS0_4listEENS0_21default_call_policiesENS_3mpl7vector2IiS7_EEEEEE@Base 2.4.5
 _ZTVN5boost6python7objects23caller_py_function_implINS0_6detail6callerIPFiRKNS0_4listERKNSt7__cxx1112basic_stringIcSt11char_traitsIcESaIcEEEENS0_21default_call_policiesENS_3mpl7vector3IiS7_SF_EEEEEE@Base 2.4.5
 _ZTVN5boost6python7objects23caller_py_function_implINS0_6detail6callerIPFiRKNS0_4listERKNSt7__cxx1112basic_stringIcSt11char_traitsIcESaIcEEEiENS0_21default_call_policiesENS_3mpl7vector4IiS7_SF_iEEEEEE@Base 2.4.5
 _ZTVN5boost6python7objects23caller_py_function_implINS0_6detail6callerIPFiRKNSt7__cxx1112basic_stringIcSt11char_traitsIcESaIcEEEENS0_21default_call_policiesENS_3mpl7vector2IiSC_EEEEEE@Base 2.4.5
 _ZTVN5boost6python7objects23caller_py_function_implINS0_6detail6callerIPFiRKNSt7__cxx1112basic_stringIcSt11char_traitsIcESaIcEEESC_ENS0_21default_call_policiesENS_3mpl7vector3IiSC_SC_EEEEEE@Base 2.4.5
 _ZTVN5boost6python7objects23caller_py_function_implINS0_6detail6callerIPFiRKNSt7__cxx1112basic_stringIcSt11char_traitsIcESaIcEEESC_SC_ENS0_21default_call_policiesENS_3mpl7vector4IiSC_SC_SC_EEEEEE@Base 2.4.5
 _ZTVN5boost6python7objects23caller_py_function_implINS0_6detail6callerIPFiRKNSt7__cxx1112basic_stringIcSt11char_traitsIcESaIcEEESC_SC_SC_ENS0_21default_call_policiesENS_3mpl7vector5IiSC_SC_SC_SC_EEEEEE@Base 2.4.5
 _ZTVN5boost6python7objects23caller_py_function_implINS0_6detail6callerIPFiRKNSt7__cxx1112basic_stringIcSt11char_traitsIcESaIcEEESC_iENS0_21default_call_policiesENS_3mpl7vector4IiSC_SC_iEEEEEE@Base 2.4.5
 _ZTVN5boost6python7objects23caller_py_function_implINS0_6detail6callerIPFvP7_objectPN9Calamares13GlobalStorageEENS0_21default_call_policiesENS_3mpl7vector3IvS6_S9_EEEEEE@Base 2.4.5
 _ZTVN5boost6python7objects23caller_py_function_implINS0_6detail6callerIPFvP7_objectPN9Calamares9PythonJobEENS0_21default_call_policiesENS_3mpl7vector3IvS6_S9_EEEEEE@Base 2.4.5
 _ZTVN5boost6python7objects23caller_py_function_implINS0_6detail6callerIPFvRKNSt7__cxx1112basic_stringIcSt11char_traitsIcESaIcEEEENS0_21default_call_policiesENS_3mpl7vector2IvSC_EEEEEE@Base 2.4.5
 _ZTVN6Logger4CLogE@Base 2.4.5
 _ZTVN6Logger6CDebugE@Base 2.4.5
 _ZTVN9Calamares10ProcessJobE@Base 2.4.5
 _ZTVN9Calamares13GlobalStorageE@Base 2.4.5
 _ZTVN9Calamares13PluginFactoryE@Base 2.4.5
 _ZTVN9Calamares3JobE@Base 2.4.5
 _ZTVN9Calamares6CppJobE@Base 2.4.5
 _ZTVN9Calamares8JobQueueE@Base 2.4.5
 _ZTVN9Calamares9JobThreadE@Base 2.4.5
 _ZTVN9Calamares9PythonJobE@Base 2.4.5
 (optional=templinst)_ZZN11QMetaTypeIdIN24KDSingleApplicationGuard8InstanceEE14qt_metatype_idEvE11metatype_id@Base 2.4.5
 (optional=templinst)_ZZN5boost6python6detail12caller_arityILj1EE4implIMN15CalamaresPython26GlobalStoragePythonWrapperEKFNS0_4listEvENS0_21default_call_policiesENS_3mpl7vector2IS7_RS6_EEE9signatureEvE3ret@Base 2.4.5
 (optional=templinst)_ZZN5boost6python6detail12caller_arityILj1EE4implIMN15CalamaresPython26GlobalStoragePythonWrapperEKFivENS0_21default_call_policiesENS_3mpl7vector2IiRS6_EEE9signatureEvE3ret@Base 2.4.5
 (optional=templinst)_ZZN5boost6python6detail12caller_arityILj1EE4implINS1_6memberINS0_4dictEN15CalamaresPython18PythonJobInterfaceEEENS0_19return_value_policyINS0_15return_by_valueENS0_21default_call_policiesEEENS_3mpl7vector2IRS6_RS8_EEE9signatureEvE3ret@Base 2.4.5
 (optional=templinst)_ZZN5boost6python6detail12caller_arityILj1EE4implINS1_6memberINSt7__cxx1112basic_stringIcSt11char_traitsIcESaIcEEEN15CalamaresPython18PythonJobInterfaceEEENS0_19return_value_policyINS0_15return_by_valueENS0_21default_call_policiesEEENS_3mpl7vector2IRSB_RSD_EEE9signatureEvE3ret@Base 2.4.5
 (optional=templinst)_ZZN5boost6python6detail12caller_arityILj1EE4implIPFNSt7__cxx1112basic_stringIcSt11char_traitsIcESaIcEEERKNS0_4listEENS0_21default_call_policiesENS_3mpl7vector2ISA_SD_EEE9signatureEvE3ret@Base 2.4.5
 (optional=templinst)_ZZN5boost6python6detail12caller_arityILj1EE4implIPFNSt7__cxx1112basic_stringIcSt11char_traitsIcESaIcEEERKSA_ENS0_21default_call_policiesENS_3mpl7vector2ISA_SC_EEE9signatureEvE3ret@Base 2.4.5
 (optional=templinst)_ZZN5boost6python6detail12caller_arityILj1EE4implIPFiRKNS0_4listEENS0_21default_call_policiesENS_3mpl7vector2IiS7_EEE9signatureEvE3ret@Base 2.4.5
 (optional=templinst)_ZZN5boost6python6detail12caller_arityILj1EE4implIPFiRKNSt7__cxx1112basic_stringIcSt11char_traitsIcESaIcEEEENS0_21default_call_policiesENS_3mpl7vector2IiSC_EEE9signatureEvE3ret@Base 2.4.5
 (optional=templinst)_ZZN5boost6python6detail12caller_arityILj1EE4implIPFvRKNSt7__cxx1112basic_stringIcSt11char_traitsIcESaIcEEEENS0_21default_call_policiesENS_3mpl7vector2IvSC_EEE9signatureEvE3ret@Base 2.4.5
 (optional=templinst)_ZZN5boost6python6detail12caller_arityILj2EE4implIMN15CalamaresPython18PythonJobInterfaceEFvdENS0_21default_call_policiesENS_3mpl7vector3IvRS6_dEEE9signatureEvE3ret@Base 2.4.5
 (optional=templinst)_ZZN5boost6python6detail12caller_arityILj2EE4implIMN15CalamaresPython26GlobalStoragePythonWrapperEFiRKNSt7__cxx1112basic_stringIcSt11char_traitsIcESaIcEEEENS0_21default_call_policiesENS_3mpl7vector3IiRS6_SE_EEE9signatureEvE3ret@Base 2.4.5
 (optional=templinst)_ZZN5boost6python6detail12caller_arityILj2EE4implIMN15CalamaresPython26GlobalStoragePythonWrapperEKFNS0_3api6objectERKNSt7__cxx1112basic_stringIcSt11char_traitsIcESaIcEEEENS0_21default_call_policiesENS_3mpl7vector3IS8_RS6_SG_EEE9signatureEvE3ret@Base 2.4.5
 (optional=templinst)_ZZN5boost6python6detail12caller_arityILj2EE4implIMN15CalamaresPython26GlobalStoragePythonWrapperEKFbRKNSt7__cxx1112basic_stringIcSt11char_traitsIcESaIcEEEENS0_21default_call_policiesENS_3mpl7vector3IbRS6_SE_EEE9signatureEvE3ret@Base 2.4.5
 (optional=templinst)_ZZN5boost6python6detail12caller_arityILj2EE4implIPFNSt7__cxx1112basic_stringIcSt11char_traitsIcESaIcEEERKNS0_4listERKSA_ENS0_21default_call_policiesENS_3mpl7vector3ISA_SD_SF_EEE9signatureEvE3ret@Base 2.4.5
 (optional=templinst)_ZZN5boost6python6detail12caller_arityILj2EE4implIPFNSt7__cxx1112basic_stringIcSt11char_traitsIcESaIcEEERKSA_SC_ENS0_21default_call_policiesENS_3mpl7vector3ISA_SC_SC_EEE9signatureEvE3ret@Base 2.4.5
 (optional=templinst)_ZZN5boost6python6detail12caller_arityILj2EE4implIPFiRKNS0_4listERKNSt7__cxx1112basic_stringIcSt11char_traitsIcESaIcEEEENS0_21default_call_policiesENS_3mpl7vector3IiS7_SF_EEE9signatureEvE3ret@Base 2.4.5
 (optional=templinst)_ZZN5boost6python6detail12caller_arityILj2EE4implIPFiRKNSt7__cxx1112basic_stringIcSt11char_traitsIcESaIcEEESC_ENS0_21default_call_policiesENS_3mpl7vector3IiSC_SC_EEE9signatureEvE3ret@Base 2.4.5
 (optional=templinst)_ZZN5boost6python6detail12caller_arityILj2EE4implIPFvP7_objectPN9Calamares13GlobalStorageEENS0_21default_call_policiesENS_3mpl7vector3IvS6_S9_EEE9signatureEvE3ret@Base 2.4.5
 (optional=templinst)_ZZN5boost6python6detail12caller_arityILj2EE4implIPFvP7_objectPN9Calamares9PythonJobEENS0_21default_call_policiesENS_3mpl7vector3IvS6_S9_EEE9signatureEvE3ret@Base 2.4.5
 (optional=templinst)_ZZN5boost6python6detail12caller_arityILj3EE4implIMN15CalamaresPython26GlobalStoragePythonWrapperEFvRKNSt7__cxx1112basic_stringIcSt11char_traitsIcESaIcEEERKNS0_3api6objectEENS0_21default_call_policiesENS_3mpl7vector4IvRS6_SE_SI_EEE9signatureEvE3ret@Base 2.4.5
 (optional=templinst)_ZZN5boost6python6detail12caller_arityILj3EE4implIPFNSt7__cxx1112basic_stringIcSt11char_traitsIcESaIcEEERKNS0_4listERKSA_iENS0_21default_call_policiesENS_3mpl7vector4ISA_SD_SF_iEEE9signatureEvE3ret@Base 2.4.5
 (optional=templinst)_ZZN5boost6python6detail12caller_arityILj3EE4implIPFNSt7__cxx1112basic_stringIcSt11char_traitsIcESaIcEEERKSA_SC_iENS0_21default_call_policiesENS_3mpl7vector4ISA_SC_SC_iEEE9signatureEvE3ret@Base 2.4.5
 (optional=templinst)_ZZN5boost6python6detail12caller_arityILj3EE4implIPFiRKNS0_4listERKNSt7__cxx1112basic_stringIcSt11char_traitsIcESaIcEEEiENS0_21default_call_policiesENS_3mpl7vector4IiS7_SF_iEEE9signatureEvE3ret@Base 2.4.5
 (optional=templinst)_ZZN5boost6python6detail12caller_arityILj3EE4implIPFiRKNSt7__cxx1112basic_stringIcSt11char_traitsIcESaIcEEESC_SC_ENS0_21default_call_policiesENS_3mpl7vector4IiSC_SC_SC_EEE9signatureEvE3ret@Base 2.4.5
 (optional=templinst)_ZZN5boost6python6detail12caller_arityILj3EE4implIPFiRKNSt7__cxx1112basic_stringIcSt11char_traitsIcESaIcEEESC_iENS0_21default_call_policiesENS_3mpl7vector4IiSC_SC_iEEE9signatureEvE3ret@Base 2.4.5
 (optional=templinst)_ZZN5boost6python6detail12caller_arityILj4EE4implIPFiRKNSt7__cxx1112basic_stringIcSt11char_traitsIcESaIcEEESC_SC_SC_ENS0_21default_call_policiesENS_3mpl7vector5IiSC_SC_SC_SC_EEE9signatureEvE3ret@Base 2.4.5
 (optional=templinst)_ZZN5boost6python6detail15signature_arityILj1EE4implINS_3mpl7vector2INS0_4listERN15CalamaresPython26GlobalStoragePythonWrapperEEEE8elementsEvE6result@Base 2.4.5
 (optional=templinst)_ZZN5boost6python6detail15signature_arityILj1EE4implINS_3mpl7vector2INSt7__cxx1112basic_stringIcSt11char_traitsIcESaIcEEERKNS0_4listEEEE8elementsEvE6result@Base 2.4.5
 (optional=templinst)_ZZN5boost6python6detail15signature_arityILj1EE4implINS_3mpl7vector2INSt7__cxx1112basic_stringIcSt11char_traitsIcESaIcEEERKSC_EEE8elementsEvE6result@Base 2.4.5
 (optional=templinst)_ZZN5boost6python6detail15signature_arityILj1EE4implINS_3mpl7vector2IRNS0_4dictERN15CalamaresPython18PythonJobInterfaceEEEE8elementsEvE6result@Base 2.4.5
 (optional=templinst)_ZZN5boost6python6detail15signature_arityILj1EE4implINS_3mpl7vector2IRNSt7__cxx1112basic_stringIcSt11char_traitsIcESaIcEEERN15CalamaresPython18PythonJobInterfaceEEEE8elementsEvE6result@Base 2.4.5
 (optional=templinst)_ZZN5boost6python6detail15signature_arityILj1EE4implINS_3mpl7vector2IiRKNS0_4listEEEE8elementsEvE6result@Base 2.4.5
 (optional=templinst)_ZZN5boost6python6detail15signature_arityILj1EE4implINS_3mpl7vector2IiRKNSt7__cxx1112basic_stringIcSt11char_traitsIcESaIcEEEEEE8elementsEvE6result@Base 2.4.5
 (optional=templinst)_ZZN5boost6python6detail15signature_arityILj1EE4implINS_3mpl7vector2IiRN15CalamaresPython26GlobalStoragePythonWrapperEEEE8elementsEvE6result@Base 2.4.5
 (optional=templinst)_ZZN5boost6python6detail15signature_arityILj1EE4implINS_3mpl7vector2IvRKNSt7__cxx1112basic_stringIcSt11char_traitsIcESaIcEEEEEE8elementsEvE6result@Base 2.4.5
 (optional=templinst)_ZZN5boost6python6detail15signature_arityILj2EE4implINS_3mpl7vector3INS0_3api6objectERN15CalamaresPython26GlobalStoragePythonWrapperERKNSt7__cxx1112basic_stringIcSt11char_traitsIcESaIcEEEEEE8elementsEvE6result@Base 2.4.5
 (optional=templinst)_ZZN5boost6python6detail15signature_arityILj2EE4implINS_3mpl7vector3INSt7__cxx1112basic_stringIcSt11char_traitsIcESaIcEEERKNS0_4listERKSC_EEE8elementsEvE6result@Base 2.4.5
 (optional=templinst)_ZZN5boost6python6detail15signature_arityILj2EE4implINS_3mpl7vector3INSt7__cxx1112basic_stringIcSt11char_traitsIcESaIcEEERKSC_SE_EEE8elementsEvE6result@Base 2.4.5
 (optional=templinst)_ZZN5boost6python6detail15signature_arityILj2EE4implINS_3mpl7vector3IbRN15CalamaresPython26GlobalStoragePythonWrapperERKNSt7__cxx1112basic_stringIcSt11char_traitsIcESaIcEEEEEE8elementsEvE6result@Base 2.4.5
 (optional=templinst)_ZZN5boost6python6detail15signature_arityILj2EE4implINS_3mpl7vector3IiRKNS0_4listERKNSt7__cxx1112basic_stringIcSt11char_traitsIcESaIcEEEEEE8elementsEvE6result@Base 2.4.5
 (optional=templinst)_ZZN5boost6python6detail15signature_arityILj2EE4implINS_3mpl7vector3IiRKNSt7__cxx1112basic_stringIcSt11char_traitsIcESaIcEEESE_EEE8elementsEvE6result@Base 2.4.5
 (optional=templinst)_ZZN5boost6python6detail15signature_arityILj2EE4implINS_3mpl7vector3IiRN15CalamaresPython26GlobalStoragePythonWrapperERKNSt7__cxx1112basic_stringIcSt11char_traitsIcESaIcEEEEEE8elementsEvE6result@Base 2.4.5
 (optional=templinst)_ZZN5boost6python6detail15signature_arityILj2EE4implINS_3mpl7vector3IvP7_objectPN9Calamares13GlobalStorageEEEE8elementsEvE6result@Base 2.4.5
 (optional=templinst)_ZZN5boost6python6detail15signature_arityILj2EE4implINS_3mpl7vector3IvP7_objectPN9Calamares9PythonJobEEEE8elementsEvE6result@Base 2.4.5
 (optional=templinst)_ZZN5boost6python6detail15signature_arityILj2EE4implINS_3mpl7vector3IvRN15CalamaresPython18PythonJobInterfaceEdEEE8elementsEvE6result@Base 2.4.5
 (optional=templinst)_ZZN5boost6python6detail15signature_arityILj3EE4implINS_3mpl7vector4INSt7__cxx1112basic_stringIcSt11char_traitsIcESaIcEEERKNS0_4listERKSC_iEEE8elementsEvE6result@Base 2.4.5
 (optional=templinst)_ZZN5boost6python6detail15signature_arityILj3EE4implINS_3mpl7vector4INSt7__cxx1112basic_stringIcSt11char_traitsIcESaIcEEERKSC_SE_iEEE8elementsEvE6result@Base 2.4.5
 (optional=templinst)_ZZN5boost6python6detail15signature_arityILj3EE4implINS_3mpl7vector4IiRKNS0_4listERKNSt7__cxx1112basic_stringIcSt11char_traitsIcESaIcEEEiEEE8elementsEvE6result@Base 2.4.5
 (optional=templinst)_ZZN5boost6python6detail15signature_arityILj3EE4implINS_3mpl7vector4IiRKNSt7__cxx1112basic_stringIcSt11char_traitsIcESaIcEEESE_SE_EEE8elementsEvE6result@Base 2.4.5
 (optional=templinst)_ZZN5boost6python6detail15signature_arityILj3EE4implINS_3mpl7vector4IiRKNSt7__cxx1112basic_stringIcSt11char_traitsIcESaIcEEESE_iEEE8elementsEvE6result@Base 2.4.5
 (optional=templinst)_ZZN5boost6python6detail15signature_arityILj3EE4implINS_3mpl7vector4IvRN15CalamaresPython26GlobalStoragePythonWrapperERKNSt7__cxx1112basic_stringIcSt11char_traitsIcESaIcEEERKNS0_3api6objectEEEE8elementsEvE6result@Base 2.4.5
 (optional=templinst)_ZZN5boost6python6detail15signature_arityILj4EE4implINS_3mpl7vector5IiRKNSt7__cxx1112basic_stringIcSt11char_traitsIcESaIcEEESE_SE_SE_EEE8elementsEvE6result@Base 2.4.5
 (optional=templinst)_ZZN5boost9function0IvE9assign_toINS_17reference_wrapperIPFvvEEEEEvT_E13stored_vtable@Base 2.4.5
 logfile@Base 2.4.5
 s_mutex@Base 2.4.5
